ARM GAS  C:\Users\Johannes\AppData\Local\Temp\cci40EjN.s 			page 1


   1              		.cpu cortex-m3
   2              		.eabi_attribute 20, 1
   3              		.eabi_attribute 21, 1
   4              		.eabi_attribute 23, 3
   5              		.eabi_attribute 24, 1
   6              		.eabi_attribute 25, 1
   7              		.eabi_attribute 26, 1
   8              		.eabi_attribute 30, 2
   9              		.eabi_attribute 34, 1
  10              		.eabi_attribute 18, 4
  11              		.file	"event_groups.c"
  12              		.text
  13              	.Ltext0:
  14              		.cfi_sections	.debug_frame
  15              		.section	.text.xEventGroupCreate,"ax",%progbits
  16              		.align	1
  17              		.p2align 2,,3
  18              		.global	xEventGroupCreate
  19              		.arch armv7-m
  20              		.syntax unified
  21              		.thumb
  22              		.thumb_func
  23              		.fpu softvfp
  25              	xEventGroupCreate:
  26              	.LFB5:
  27              		.file 1 "Middlewares/Third_Party/FreeRTOS/Source/event_groups.c"
   1:Middlewares/Third_Party/FreeRTOS/Source/event_groups.c **** /*
   2:Middlewares/Third_Party/FreeRTOS/Source/event_groups.c ****  * FreeRTOS Kernel V10.0.1
   3:Middlewares/Third_Party/FreeRTOS/Source/event_groups.c ****  * Copyright (C) 2017 Amazon.com, Inc. or its affiliates.  All Rights Reserved.
   4:Middlewares/Third_Party/FreeRTOS/Source/event_groups.c ****  *
   5:Middlewares/Third_Party/FreeRTOS/Source/event_groups.c ****  * Permission is hereby granted, free of charge, to any person obtaining a copy of
   6:Middlewares/Third_Party/FreeRTOS/Source/event_groups.c ****  * this software and associated documentation files (the "Software"), to deal in
   7:Middlewares/Third_Party/FreeRTOS/Source/event_groups.c ****  * the Software without restriction, including without limitation the rights to
   8:Middlewares/Third_Party/FreeRTOS/Source/event_groups.c ****  * use, copy, modify, merge, publish, distribute, sublicense, and/or sell copies of
   9:Middlewares/Third_Party/FreeRTOS/Source/event_groups.c ****  * the Software, and to permit persons to whom the Software is furnished to do so,
  10:Middlewares/Third_Party/FreeRTOS/Source/event_groups.c ****  * subject to the following conditions:
  11:Middlewares/Third_Party/FreeRTOS/Source/event_groups.c ****  *
  12:Middlewares/Third_Party/FreeRTOS/Source/event_groups.c ****  * The above copyright notice and this permission notice shall be included in all
  13:Middlewares/Third_Party/FreeRTOS/Source/event_groups.c ****  * copies or substantial portions of the Software.
  14:Middlewares/Third_Party/FreeRTOS/Source/event_groups.c ****  *
  15:Middlewares/Third_Party/FreeRTOS/Source/event_groups.c ****  * THE SOFTWARE IS PROVIDED "AS IS", WITHOUT WARRANTY OF ANY KIND, EXPRESS OR
  16:Middlewares/Third_Party/FreeRTOS/Source/event_groups.c ****  * IMPLIED, INCLUDING BUT NOT LIMITED TO THE WARRANTIES OF MERCHANTABILITY, FITNESS
  17:Middlewares/Third_Party/FreeRTOS/Source/event_groups.c ****  * FOR A PARTICULAR PURPOSE AND NONINFRINGEMENT. IN NO EVENT SHALL THE AUTHORS OR
  18:Middlewares/Third_Party/FreeRTOS/Source/event_groups.c ****  * COPYRIGHT HOLDERS BE LIABLE FOR ANY CLAIM, DAMAGES OR OTHER LIABILITY, WHETHER
  19:Middlewares/Third_Party/FreeRTOS/Source/event_groups.c ****  * IN AN ACTION OF CONTRACT, TORT OR OTHERWISE, ARISING FROM, OUT OF OR IN
  20:Middlewares/Third_Party/FreeRTOS/Source/event_groups.c ****  * CONNECTION WITH THE SOFTWARE OR THE USE OR OTHER DEALINGS IN THE SOFTWARE.
  21:Middlewares/Third_Party/FreeRTOS/Source/event_groups.c ****  *
  22:Middlewares/Third_Party/FreeRTOS/Source/event_groups.c ****  * http://www.FreeRTOS.org
  23:Middlewares/Third_Party/FreeRTOS/Source/event_groups.c ****  * http://aws.amazon.com/freertos
  24:Middlewares/Third_Party/FreeRTOS/Source/event_groups.c ****  *
  25:Middlewares/Third_Party/FreeRTOS/Source/event_groups.c ****  * 1 tab == 4 spaces!
  26:Middlewares/Third_Party/FreeRTOS/Source/event_groups.c ****  */
  27:Middlewares/Third_Party/FreeRTOS/Source/event_groups.c **** 
  28:Middlewares/Third_Party/FreeRTOS/Source/event_groups.c **** /* Standard includes. */
  29:Middlewares/Third_Party/FreeRTOS/Source/event_groups.c **** #include <stdlib.h>
  30:Middlewares/Third_Party/FreeRTOS/Source/event_groups.c **** 
  31:Middlewares/Third_Party/FreeRTOS/Source/event_groups.c **** /* Defining MPU_WRAPPERS_INCLUDED_FROM_API_FILE prevents task.h from redefining
ARM GAS  C:\Users\Johannes\AppData\Local\Temp\cci40EjN.s 			page 2


  32:Middlewares/Third_Party/FreeRTOS/Source/event_groups.c **** all the API functions to use the MPU wrappers.  That should only be done when
  33:Middlewares/Third_Party/FreeRTOS/Source/event_groups.c **** task.h is included from an application file. */
  34:Middlewares/Third_Party/FreeRTOS/Source/event_groups.c **** #define MPU_WRAPPERS_INCLUDED_FROM_API_FILE
  35:Middlewares/Third_Party/FreeRTOS/Source/event_groups.c **** 
  36:Middlewares/Third_Party/FreeRTOS/Source/event_groups.c **** /* FreeRTOS includes. */
  37:Middlewares/Third_Party/FreeRTOS/Source/event_groups.c **** #include "FreeRTOS.h"
  38:Middlewares/Third_Party/FreeRTOS/Source/event_groups.c **** #include "task.h"
  39:Middlewares/Third_Party/FreeRTOS/Source/event_groups.c **** #include "timers.h"
  40:Middlewares/Third_Party/FreeRTOS/Source/event_groups.c **** #include "event_groups.h"
  41:Middlewares/Third_Party/FreeRTOS/Source/event_groups.c **** 
  42:Middlewares/Third_Party/FreeRTOS/Source/event_groups.c **** /* Lint e961 and e750 are suppressed as a MISRA exception justified because the
  43:Middlewares/Third_Party/FreeRTOS/Source/event_groups.c **** MPU ports require MPU_WRAPPERS_INCLUDED_FROM_API_FILE to be defined for the
  44:Middlewares/Third_Party/FreeRTOS/Source/event_groups.c **** header files above, but not in this file, in order to generate the correct
  45:Middlewares/Third_Party/FreeRTOS/Source/event_groups.c **** privileged Vs unprivileged linkage and placement. */
  46:Middlewares/Third_Party/FreeRTOS/Source/event_groups.c **** #undef MPU_WRAPPERS_INCLUDED_FROM_API_FILE /*lint !e961 !e750. */
  47:Middlewares/Third_Party/FreeRTOS/Source/event_groups.c **** 
  48:Middlewares/Third_Party/FreeRTOS/Source/event_groups.c **** /* The following bit fields convey control information in a task's event list
  49:Middlewares/Third_Party/FreeRTOS/Source/event_groups.c **** item value.  It is important they don't clash with the
  50:Middlewares/Third_Party/FreeRTOS/Source/event_groups.c **** taskEVENT_LIST_ITEM_VALUE_IN_USE definition. */
  51:Middlewares/Third_Party/FreeRTOS/Source/event_groups.c **** #if configUSE_16_BIT_TICKS == 1
  52:Middlewares/Third_Party/FreeRTOS/Source/event_groups.c **** 	#define eventCLEAR_EVENTS_ON_EXIT_BIT	0x0100U
  53:Middlewares/Third_Party/FreeRTOS/Source/event_groups.c **** 	#define eventUNBLOCKED_DUE_TO_BIT_SET	0x0200U
  54:Middlewares/Third_Party/FreeRTOS/Source/event_groups.c **** 	#define eventWAIT_FOR_ALL_BITS			0x0400U
  55:Middlewares/Third_Party/FreeRTOS/Source/event_groups.c **** 	#define eventEVENT_BITS_CONTROL_BYTES	0xff00U
  56:Middlewares/Third_Party/FreeRTOS/Source/event_groups.c **** #else
  57:Middlewares/Third_Party/FreeRTOS/Source/event_groups.c **** 	#define eventCLEAR_EVENTS_ON_EXIT_BIT	0x01000000UL
  58:Middlewares/Third_Party/FreeRTOS/Source/event_groups.c **** 	#define eventUNBLOCKED_DUE_TO_BIT_SET	0x02000000UL
  59:Middlewares/Third_Party/FreeRTOS/Source/event_groups.c **** 	#define eventWAIT_FOR_ALL_BITS			0x04000000UL
  60:Middlewares/Third_Party/FreeRTOS/Source/event_groups.c **** 	#define eventEVENT_BITS_CONTROL_BYTES	0xff000000UL
  61:Middlewares/Third_Party/FreeRTOS/Source/event_groups.c **** #endif
  62:Middlewares/Third_Party/FreeRTOS/Source/event_groups.c **** 
  63:Middlewares/Third_Party/FreeRTOS/Source/event_groups.c **** typedef struct xEventGroupDefinition
  64:Middlewares/Third_Party/FreeRTOS/Source/event_groups.c **** {
  65:Middlewares/Third_Party/FreeRTOS/Source/event_groups.c **** 	EventBits_t uxEventBits;
  66:Middlewares/Third_Party/FreeRTOS/Source/event_groups.c **** 	List_t xTasksWaitingForBits;		/*< List of tasks waiting for a bit to be set. */
  67:Middlewares/Third_Party/FreeRTOS/Source/event_groups.c **** 
  68:Middlewares/Third_Party/FreeRTOS/Source/event_groups.c **** 	#if( configUSE_TRACE_FACILITY == 1 )
  69:Middlewares/Third_Party/FreeRTOS/Source/event_groups.c **** 		UBaseType_t uxEventGroupNumber;
  70:Middlewares/Third_Party/FreeRTOS/Source/event_groups.c **** 	#endif
  71:Middlewares/Third_Party/FreeRTOS/Source/event_groups.c **** 
  72:Middlewares/Third_Party/FreeRTOS/Source/event_groups.c **** 	#if( ( configSUPPORT_STATIC_ALLOCATION == 1 ) && ( configSUPPORT_DYNAMIC_ALLOCATION == 1 ) )
  73:Middlewares/Third_Party/FreeRTOS/Source/event_groups.c **** 		uint8_t ucStaticallyAllocated; /*< Set to pdTRUE if the event group is statically allocated to en
  74:Middlewares/Third_Party/FreeRTOS/Source/event_groups.c **** 	#endif
  75:Middlewares/Third_Party/FreeRTOS/Source/event_groups.c **** } EventGroup_t;
  76:Middlewares/Third_Party/FreeRTOS/Source/event_groups.c **** 
  77:Middlewares/Third_Party/FreeRTOS/Source/event_groups.c **** /*-----------------------------------------------------------*/
  78:Middlewares/Third_Party/FreeRTOS/Source/event_groups.c **** 
  79:Middlewares/Third_Party/FreeRTOS/Source/event_groups.c **** /*
  80:Middlewares/Third_Party/FreeRTOS/Source/event_groups.c ****  * Test the bits set in uxCurrentEventBits to see if the wait condition is met.
  81:Middlewares/Third_Party/FreeRTOS/Source/event_groups.c ****  * The wait condition is defined by xWaitForAllBits.  If xWaitForAllBits is
  82:Middlewares/Third_Party/FreeRTOS/Source/event_groups.c ****  * pdTRUE then the wait condition is met if all the bits set in uxBitsToWaitFor
  83:Middlewares/Third_Party/FreeRTOS/Source/event_groups.c ****  * are also set in uxCurrentEventBits.  If xWaitForAllBits is pdFALSE then the
  84:Middlewares/Third_Party/FreeRTOS/Source/event_groups.c ****  * wait condition is met if any of the bits set in uxBitsToWait for are also set
  85:Middlewares/Third_Party/FreeRTOS/Source/event_groups.c ****  * in uxCurrentEventBits.
  86:Middlewares/Third_Party/FreeRTOS/Source/event_groups.c ****  */
  87:Middlewares/Third_Party/FreeRTOS/Source/event_groups.c **** static BaseType_t prvTestWaitCondition( const EventBits_t uxCurrentEventBits, const EventBits_t uxB
  88:Middlewares/Third_Party/FreeRTOS/Source/event_groups.c **** 
ARM GAS  C:\Users\Johannes\AppData\Local\Temp\cci40EjN.s 			page 3


  89:Middlewares/Third_Party/FreeRTOS/Source/event_groups.c **** /*-----------------------------------------------------------*/
  90:Middlewares/Third_Party/FreeRTOS/Source/event_groups.c **** 
  91:Middlewares/Third_Party/FreeRTOS/Source/event_groups.c **** #if( configSUPPORT_STATIC_ALLOCATION == 1 )
  92:Middlewares/Third_Party/FreeRTOS/Source/event_groups.c **** 
  93:Middlewares/Third_Party/FreeRTOS/Source/event_groups.c **** 	EventGroupHandle_t xEventGroupCreateStatic( StaticEventGroup_t *pxEventGroupBuffer )
  94:Middlewares/Third_Party/FreeRTOS/Source/event_groups.c **** 	{
  95:Middlewares/Third_Party/FreeRTOS/Source/event_groups.c **** 	EventGroup_t *pxEventBits;
  96:Middlewares/Third_Party/FreeRTOS/Source/event_groups.c **** 
  97:Middlewares/Third_Party/FreeRTOS/Source/event_groups.c **** 		/* A StaticEventGroup_t object must be provided. */
  98:Middlewares/Third_Party/FreeRTOS/Source/event_groups.c **** 		configASSERT( pxEventGroupBuffer );
  99:Middlewares/Third_Party/FreeRTOS/Source/event_groups.c **** 
 100:Middlewares/Third_Party/FreeRTOS/Source/event_groups.c **** 		#if( configASSERT_DEFINED == 1 )
 101:Middlewares/Third_Party/FreeRTOS/Source/event_groups.c **** 		{
 102:Middlewares/Third_Party/FreeRTOS/Source/event_groups.c **** 			/* Sanity check that the size of the structure used to declare a
 103:Middlewares/Third_Party/FreeRTOS/Source/event_groups.c **** 			variable of type StaticEventGroup_t equals the size of the real
 104:Middlewares/Third_Party/FreeRTOS/Source/event_groups.c **** 			event group structure. */
 105:Middlewares/Third_Party/FreeRTOS/Source/event_groups.c **** 			volatile size_t xSize = sizeof( StaticEventGroup_t );
 106:Middlewares/Third_Party/FreeRTOS/Source/event_groups.c **** 			configASSERT( xSize == sizeof( EventGroup_t ) );
 107:Middlewares/Third_Party/FreeRTOS/Source/event_groups.c **** 		}
 108:Middlewares/Third_Party/FreeRTOS/Source/event_groups.c **** 		#endif /* configASSERT_DEFINED */
 109:Middlewares/Third_Party/FreeRTOS/Source/event_groups.c **** 
 110:Middlewares/Third_Party/FreeRTOS/Source/event_groups.c **** 		/* The user has provided a statically allocated event group - use it. */
 111:Middlewares/Third_Party/FreeRTOS/Source/event_groups.c **** 		pxEventBits = ( EventGroup_t * ) pxEventGroupBuffer; /*lint !e740 EventGroup_t and StaticEventGro
 112:Middlewares/Third_Party/FreeRTOS/Source/event_groups.c **** 
 113:Middlewares/Third_Party/FreeRTOS/Source/event_groups.c **** 		if( pxEventBits != NULL )
 114:Middlewares/Third_Party/FreeRTOS/Source/event_groups.c **** 		{
 115:Middlewares/Third_Party/FreeRTOS/Source/event_groups.c **** 			pxEventBits->uxEventBits = 0;
 116:Middlewares/Third_Party/FreeRTOS/Source/event_groups.c **** 			vListInitialise( &( pxEventBits->xTasksWaitingForBits ) );
 117:Middlewares/Third_Party/FreeRTOS/Source/event_groups.c **** 
 118:Middlewares/Third_Party/FreeRTOS/Source/event_groups.c **** 			#if( configSUPPORT_DYNAMIC_ALLOCATION == 1 )
 119:Middlewares/Third_Party/FreeRTOS/Source/event_groups.c **** 			{
 120:Middlewares/Third_Party/FreeRTOS/Source/event_groups.c **** 				/* Both static and dynamic allocation can be used, so note that
 121:Middlewares/Third_Party/FreeRTOS/Source/event_groups.c **** 				this event group was created statically in case the event group
 122:Middlewares/Third_Party/FreeRTOS/Source/event_groups.c **** 				is later deleted. */
 123:Middlewares/Third_Party/FreeRTOS/Source/event_groups.c **** 				pxEventBits->ucStaticallyAllocated = pdTRUE;
 124:Middlewares/Third_Party/FreeRTOS/Source/event_groups.c **** 			}
 125:Middlewares/Third_Party/FreeRTOS/Source/event_groups.c **** 			#endif /* configSUPPORT_DYNAMIC_ALLOCATION */
 126:Middlewares/Third_Party/FreeRTOS/Source/event_groups.c **** 
 127:Middlewares/Third_Party/FreeRTOS/Source/event_groups.c **** 			traceEVENT_GROUP_CREATE( pxEventBits );
 128:Middlewares/Third_Party/FreeRTOS/Source/event_groups.c **** 		}
 129:Middlewares/Third_Party/FreeRTOS/Source/event_groups.c **** 		else
 130:Middlewares/Third_Party/FreeRTOS/Source/event_groups.c **** 		{
 131:Middlewares/Third_Party/FreeRTOS/Source/event_groups.c **** 			traceEVENT_GROUP_CREATE_FAILED();
 132:Middlewares/Third_Party/FreeRTOS/Source/event_groups.c **** 		}
 133:Middlewares/Third_Party/FreeRTOS/Source/event_groups.c **** 
 134:Middlewares/Third_Party/FreeRTOS/Source/event_groups.c **** 		return ( EventGroupHandle_t ) pxEventBits;
 135:Middlewares/Third_Party/FreeRTOS/Source/event_groups.c **** 	}
 136:Middlewares/Third_Party/FreeRTOS/Source/event_groups.c **** 
 137:Middlewares/Third_Party/FreeRTOS/Source/event_groups.c **** #endif /* configSUPPORT_STATIC_ALLOCATION */
 138:Middlewares/Third_Party/FreeRTOS/Source/event_groups.c **** /*-----------------------------------------------------------*/
 139:Middlewares/Third_Party/FreeRTOS/Source/event_groups.c **** 
 140:Middlewares/Third_Party/FreeRTOS/Source/event_groups.c **** #if( configSUPPORT_DYNAMIC_ALLOCATION == 1 )
 141:Middlewares/Third_Party/FreeRTOS/Source/event_groups.c **** 
 142:Middlewares/Third_Party/FreeRTOS/Source/event_groups.c **** 	EventGroupHandle_t xEventGroupCreate( void )
 143:Middlewares/Third_Party/FreeRTOS/Source/event_groups.c **** 	{
  28              		.loc 1 143 2 view -0
  29              		.cfi_startproc
ARM GAS  C:\Users\Johannes\AppData\Local\Temp\cci40EjN.s 			page 4


  30              		@ args = 0, pretend = 0, frame = 0
  31              		@ frame_needed = 0, uses_anonymous_args = 0
 144:Middlewares/Third_Party/FreeRTOS/Source/event_groups.c **** 	EventGroup_t *pxEventBits;
  32              		.loc 1 144 2 view .LVU1
 145:Middlewares/Third_Party/FreeRTOS/Source/event_groups.c **** 
 146:Middlewares/Third_Party/FreeRTOS/Source/event_groups.c **** 		/* Allocate the event group. */
 147:Middlewares/Third_Party/FreeRTOS/Source/event_groups.c **** 		pxEventBits = ( EventGroup_t * ) pvPortMalloc( sizeof( EventGroup_t ) );
  33              		.loc 1 147 3 view .LVU2
 143:Middlewares/Third_Party/FreeRTOS/Source/event_groups.c **** 	EventGroup_t *pxEventBits;
  34              		.loc 1 143 2 is_stmt 0 view .LVU3
  35 0000 10B5     		push	{r4, lr}
  36              	.LCFI0:
  37              		.cfi_def_cfa_offset 8
  38              		.cfi_offset 4, -8
  39              		.cfi_offset 14, -4
  40              		.loc 1 147 36 view .LVU4
  41 0002 1820     		movs	r0, #24
  42 0004 FFF7FEFF 		bl	pvPortMalloc
  43              	.LVL0:
 148:Middlewares/Third_Party/FreeRTOS/Source/event_groups.c **** 
 149:Middlewares/Third_Party/FreeRTOS/Source/event_groups.c **** 		if( pxEventBits != NULL )
  44              		.loc 1 149 3 is_stmt 1 view .LVU5
  45              		.loc 1 149 5 is_stmt 0 view .LVU6
  46 0008 0446     		mov	r4, r0
  47 000a 20B1     		cbz	r0, .L1
 150:Middlewares/Third_Party/FreeRTOS/Source/event_groups.c **** 		{
 151:Middlewares/Third_Party/FreeRTOS/Source/event_groups.c **** 			pxEventBits->uxEventBits = 0;
  48              		.loc 1 151 4 is_stmt 1 view .LVU7
  49              		.loc 1 151 29 is_stmt 0 view .LVU8
  50 000c 0023     		movs	r3, #0
  51 000e 40F8043B 		str	r3, [r0], #4
  52              	.LVL1:
 152:Middlewares/Third_Party/FreeRTOS/Source/event_groups.c **** 			vListInitialise( &( pxEventBits->xTasksWaitingForBits ) );
  53              		.loc 1 152 4 is_stmt 1 view .LVU9
  54 0012 FFF7FEFF 		bl	vListInitialise
  55              	.LVL2:
 153:Middlewares/Third_Party/FreeRTOS/Source/event_groups.c **** 
 154:Middlewares/Third_Party/FreeRTOS/Source/event_groups.c **** 			#if( configSUPPORT_STATIC_ALLOCATION == 1 )
 155:Middlewares/Third_Party/FreeRTOS/Source/event_groups.c **** 			{
 156:Middlewares/Third_Party/FreeRTOS/Source/event_groups.c **** 				/* Both static and dynamic allocation can be used, so note this
 157:Middlewares/Third_Party/FreeRTOS/Source/event_groups.c **** 				event group was allocated statically in case the event group is
 158:Middlewares/Third_Party/FreeRTOS/Source/event_groups.c **** 				later deleted. */
 159:Middlewares/Third_Party/FreeRTOS/Source/event_groups.c **** 				pxEventBits->ucStaticallyAllocated = pdFALSE;
 160:Middlewares/Third_Party/FreeRTOS/Source/event_groups.c **** 			}
 161:Middlewares/Third_Party/FreeRTOS/Source/event_groups.c **** 			#endif /* configSUPPORT_STATIC_ALLOCATION */
 162:Middlewares/Third_Party/FreeRTOS/Source/event_groups.c **** 
 163:Middlewares/Third_Party/FreeRTOS/Source/event_groups.c **** 			traceEVENT_GROUP_CREATE( pxEventBits );
  56              		.loc 1 163 42 view .LVU10
 164:Middlewares/Third_Party/FreeRTOS/Source/event_groups.c **** 		}
 165:Middlewares/Third_Party/FreeRTOS/Source/event_groups.c **** 		else
 166:Middlewares/Third_Party/FreeRTOS/Source/event_groups.c **** 		{
 167:Middlewares/Third_Party/FreeRTOS/Source/event_groups.c **** 			traceEVENT_GROUP_CREATE_FAILED();
  57              		.loc 1 167 36 view .LVU11
 168:Middlewares/Third_Party/FreeRTOS/Source/event_groups.c **** 		}
 169:Middlewares/Third_Party/FreeRTOS/Source/event_groups.c **** 
 170:Middlewares/Third_Party/FreeRTOS/Source/event_groups.c **** 		return ( EventGroupHandle_t ) pxEventBits;
  58              		.loc 1 170 3 view .LVU12
ARM GAS  C:\Users\Johannes\AppData\Local\Temp\cci40EjN.s 			page 5


  59              	.L1:
 171:Middlewares/Third_Party/FreeRTOS/Source/event_groups.c **** 	}
  60              		.loc 1 171 2 is_stmt 0 view .LVU13
  61 0016 2046     		mov	r0, r4
  62 0018 10BD     		pop	{r4, pc}
  63              		.loc 1 171 2 view .LVU14
  64              		.cfi_endproc
  65              	.LFE5:
  67 001a 00BF     		.section	.text.xEventGroupWaitBits,"ax",%progbits
  68              		.align	1
  69              		.p2align 2,,3
  70              		.global	xEventGroupWaitBits
  71              		.syntax unified
  72              		.thumb
  73              		.thumb_func
  74              		.fpu softvfp
  76              	xEventGroupWaitBits:
  77              	.LVL3:
  78              	.LFB7:
 172:Middlewares/Third_Party/FreeRTOS/Source/event_groups.c **** 
 173:Middlewares/Third_Party/FreeRTOS/Source/event_groups.c **** #endif /* configSUPPORT_DYNAMIC_ALLOCATION */
 174:Middlewares/Third_Party/FreeRTOS/Source/event_groups.c **** /*-----------------------------------------------------------*/
 175:Middlewares/Third_Party/FreeRTOS/Source/event_groups.c **** 
 176:Middlewares/Third_Party/FreeRTOS/Source/event_groups.c **** EventBits_t xEventGroupSync( EventGroupHandle_t xEventGroup, const EventBits_t uxBitsToSet, const E
 177:Middlewares/Third_Party/FreeRTOS/Source/event_groups.c **** {
 178:Middlewares/Third_Party/FreeRTOS/Source/event_groups.c **** EventBits_t uxOriginalBitValue, uxReturn;
 179:Middlewares/Third_Party/FreeRTOS/Source/event_groups.c **** EventGroup_t *pxEventBits = ( EventGroup_t * ) xEventGroup;
 180:Middlewares/Third_Party/FreeRTOS/Source/event_groups.c **** BaseType_t xAlreadyYielded;
 181:Middlewares/Third_Party/FreeRTOS/Source/event_groups.c **** BaseType_t xTimeoutOccurred = pdFALSE;
 182:Middlewares/Third_Party/FreeRTOS/Source/event_groups.c **** 
 183:Middlewares/Third_Party/FreeRTOS/Source/event_groups.c **** 	configASSERT( ( uxBitsToWaitFor & eventEVENT_BITS_CONTROL_BYTES ) == 0 );
 184:Middlewares/Third_Party/FreeRTOS/Source/event_groups.c **** 	configASSERT( uxBitsToWaitFor != 0 );
 185:Middlewares/Third_Party/FreeRTOS/Source/event_groups.c **** 	#if ( ( INCLUDE_xTaskGetSchedulerState == 1 ) || ( configUSE_TIMERS == 1 ) )
 186:Middlewares/Third_Party/FreeRTOS/Source/event_groups.c **** 	{
 187:Middlewares/Third_Party/FreeRTOS/Source/event_groups.c **** 		configASSERT( !( ( xTaskGetSchedulerState() == taskSCHEDULER_SUSPENDED ) && ( xTicksToWait != 0 )
 188:Middlewares/Third_Party/FreeRTOS/Source/event_groups.c **** 	}
 189:Middlewares/Third_Party/FreeRTOS/Source/event_groups.c **** 	#endif
 190:Middlewares/Third_Party/FreeRTOS/Source/event_groups.c **** 
 191:Middlewares/Third_Party/FreeRTOS/Source/event_groups.c **** 	vTaskSuspendAll();
 192:Middlewares/Third_Party/FreeRTOS/Source/event_groups.c **** 	{
 193:Middlewares/Third_Party/FreeRTOS/Source/event_groups.c **** 		uxOriginalBitValue = pxEventBits->uxEventBits;
 194:Middlewares/Third_Party/FreeRTOS/Source/event_groups.c **** 
 195:Middlewares/Third_Party/FreeRTOS/Source/event_groups.c **** 		( void ) xEventGroupSetBits( xEventGroup, uxBitsToSet );
 196:Middlewares/Third_Party/FreeRTOS/Source/event_groups.c **** 
 197:Middlewares/Third_Party/FreeRTOS/Source/event_groups.c **** 		if( ( ( uxOriginalBitValue | uxBitsToSet ) & uxBitsToWaitFor ) == uxBitsToWaitFor )
 198:Middlewares/Third_Party/FreeRTOS/Source/event_groups.c **** 		{
 199:Middlewares/Third_Party/FreeRTOS/Source/event_groups.c **** 			/* All the rendezvous bits are now set - no need to block. */
 200:Middlewares/Third_Party/FreeRTOS/Source/event_groups.c **** 			uxReturn = ( uxOriginalBitValue | uxBitsToSet );
 201:Middlewares/Third_Party/FreeRTOS/Source/event_groups.c **** 
 202:Middlewares/Third_Party/FreeRTOS/Source/event_groups.c **** 			/* Rendezvous always clear the bits.  They will have been cleared
 203:Middlewares/Third_Party/FreeRTOS/Source/event_groups.c **** 			already unless this is the only task in the rendezvous. */
 204:Middlewares/Third_Party/FreeRTOS/Source/event_groups.c **** 			pxEventBits->uxEventBits &= ~uxBitsToWaitFor;
 205:Middlewares/Third_Party/FreeRTOS/Source/event_groups.c **** 
 206:Middlewares/Third_Party/FreeRTOS/Source/event_groups.c **** 			xTicksToWait = 0;
 207:Middlewares/Third_Party/FreeRTOS/Source/event_groups.c **** 		}
 208:Middlewares/Third_Party/FreeRTOS/Source/event_groups.c **** 		else
 209:Middlewares/Third_Party/FreeRTOS/Source/event_groups.c **** 		{
ARM GAS  C:\Users\Johannes\AppData\Local\Temp\cci40EjN.s 			page 6


 210:Middlewares/Third_Party/FreeRTOS/Source/event_groups.c **** 			if( xTicksToWait != ( TickType_t ) 0 )
 211:Middlewares/Third_Party/FreeRTOS/Source/event_groups.c **** 			{
 212:Middlewares/Third_Party/FreeRTOS/Source/event_groups.c **** 				traceEVENT_GROUP_SYNC_BLOCK( xEventGroup, uxBitsToSet, uxBitsToWaitFor );
 213:Middlewares/Third_Party/FreeRTOS/Source/event_groups.c **** 
 214:Middlewares/Third_Party/FreeRTOS/Source/event_groups.c **** 				/* Store the bits that the calling task is waiting for in the
 215:Middlewares/Third_Party/FreeRTOS/Source/event_groups.c **** 				task's event list item so the kernel knows when a match is
 216:Middlewares/Third_Party/FreeRTOS/Source/event_groups.c **** 				found.  Then enter the blocked state. */
 217:Middlewares/Third_Party/FreeRTOS/Source/event_groups.c **** 				vTaskPlaceOnUnorderedEventList( &( pxEventBits->xTasksWaitingForBits ), ( uxBitsToWaitFor | eve
 218:Middlewares/Third_Party/FreeRTOS/Source/event_groups.c **** 
 219:Middlewares/Third_Party/FreeRTOS/Source/event_groups.c **** 				/* This assignment is obsolete as uxReturn will get set after
 220:Middlewares/Third_Party/FreeRTOS/Source/event_groups.c **** 				the task unblocks, but some compilers mistakenly generate a
 221:Middlewares/Third_Party/FreeRTOS/Source/event_groups.c **** 				warning about uxReturn being returned without being set if the
 222:Middlewares/Third_Party/FreeRTOS/Source/event_groups.c **** 				assignment is omitted. */
 223:Middlewares/Third_Party/FreeRTOS/Source/event_groups.c **** 				uxReturn = 0;
 224:Middlewares/Third_Party/FreeRTOS/Source/event_groups.c **** 			}
 225:Middlewares/Third_Party/FreeRTOS/Source/event_groups.c **** 			else
 226:Middlewares/Third_Party/FreeRTOS/Source/event_groups.c **** 			{
 227:Middlewares/Third_Party/FreeRTOS/Source/event_groups.c **** 				/* The rendezvous bits were not set, but no block time was
 228:Middlewares/Third_Party/FreeRTOS/Source/event_groups.c **** 				specified - just return the current event bit value. */
 229:Middlewares/Third_Party/FreeRTOS/Source/event_groups.c **** 				uxReturn = pxEventBits->uxEventBits;
 230:Middlewares/Third_Party/FreeRTOS/Source/event_groups.c **** 				xTimeoutOccurred = pdTRUE;
 231:Middlewares/Third_Party/FreeRTOS/Source/event_groups.c **** 			}
 232:Middlewares/Third_Party/FreeRTOS/Source/event_groups.c **** 		}
 233:Middlewares/Third_Party/FreeRTOS/Source/event_groups.c **** 	}
 234:Middlewares/Third_Party/FreeRTOS/Source/event_groups.c **** 	xAlreadyYielded = xTaskResumeAll();
 235:Middlewares/Third_Party/FreeRTOS/Source/event_groups.c **** 
 236:Middlewares/Third_Party/FreeRTOS/Source/event_groups.c **** 	if( xTicksToWait != ( TickType_t ) 0 )
 237:Middlewares/Third_Party/FreeRTOS/Source/event_groups.c **** 	{
 238:Middlewares/Third_Party/FreeRTOS/Source/event_groups.c **** 		if( xAlreadyYielded == pdFALSE )
 239:Middlewares/Third_Party/FreeRTOS/Source/event_groups.c **** 		{
 240:Middlewares/Third_Party/FreeRTOS/Source/event_groups.c **** 			portYIELD_WITHIN_API();
 241:Middlewares/Third_Party/FreeRTOS/Source/event_groups.c **** 		}
 242:Middlewares/Third_Party/FreeRTOS/Source/event_groups.c **** 		else
 243:Middlewares/Third_Party/FreeRTOS/Source/event_groups.c **** 		{
 244:Middlewares/Third_Party/FreeRTOS/Source/event_groups.c **** 			mtCOVERAGE_TEST_MARKER();
 245:Middlewares/Third_Party/FreeRTOS/Source/event_groups.c **** 		}
 246:Middlewares/Third_Party/FreeRTOS/Source/event_groups.c **** 
 247:Middlewares/Third_Party/FreeRTOS/Source/event_groups.c **** 		/* The task blocked to wait for its required bits to be set - at this
 248:Middlewares/Third_Party/FreeRTOS/Source/event_groups.c **** 		point either the required bits were set or the block time expired.  If
 249:Middlewares/Third_Party/FreeRTOS/Source/event_groups.c **** 		the required bits were set they will have been stored in the task's
 250:Middlewares/Third_Party/FreeRTOS/Source/event_groups.c **** 		event list item, and they should now be retrieved then cleared. */
 251:Middlewares/Third_Party/FreeRTOS/Source/event_groups.c **** 		uxReturn = uxTaskResetEventItemValue();
 252:Middlewares/Third_Party/FreeRTOS/Source/event_groups.c **** 
 253:Middlewares/Third_Party/FreeRTOS/Source/event_groups.c **** 		if( ( uxReturn & eventUNBLOCKED_DUE_TO_BIT_SET ) == ( EventBits_t ) 0 )
 254:Middlewares/Third_Party/FreeRTOS/Source/event_groups.c **** 		{
 255:Middlewares/Third_Party/FreeRTOS/Source/event_groups.c **** 			/* The task timed out, just return the current event bit value. */
 256:Middlewares/Third_Party/FreeRTOS/Source/event_groups.c **** 			taskENTER_CRITICAL();
 257:Middlewares/Third_Party/FreeRTOS/Source/event_groups.c **** 			{
 258:Middlewares/Third_Party/FreeRTOS/Source/event_groups.c **** 				uxReturn = pxEventBits->uxEventBits;
 259:Middlewares/Third_Party/FreeRTOS/Source/event_groups.c **** 
 260:Middlewares/Third_Party/FreeRTOS/Source/event_groups.c **** 				/* Although the task got here because it timed out before the
 261:Middlewares/Third_Party/FreeRTOS/Source/event_groups.c **** 				bits it was waiting for were set, it is possible that since it
 262:Middlewares/Third_Party/FreeRTOS/Source/event_groups.c **** 				unblocked another task has set the bits.  If this is the case
 263:Middlewares/Third_Party/FreeRTOS/Source/event_groups.c **** 				then it needs to clear the bits before exiting. */
 264:Middlewares/Third_Party/FreeRTOS/Source/event_groups.c **** 				if( ( uxReturn & uxBitsToWaitFor ) == uxBitsToWaitFor )
 265:Middlewares/Third_Party/FreeRTOS/Source/event_groups.c **** 				{
 266:Middlewares/Third_Party/FreeRTOS/Source/event_groups.c **** 					pxEventBits->uxEventBits &= ~uxBitsToWaitFor;
ARM GAS  C:\Users\Johannes\AppData\Local\Temp\cci40EjN.s 			page 7


 267:Middlewares/Third_Party/FreeRTOS/Source/event_groups.c **** 				}
 268:Middlewares/Third_Party/FreeRTOS/Source/event_groups.c **** 				else
 269:Middlewares/Third_Party/FreeRTOS/Source/event_groups.c **** 				{
 270:Middlewares/Third_Party/FreeRTOS/Source/event_groups.c **** 					mtCOVERAGE_TEST_MARKER();
 271:Middlewares/Third_Party/FreeRTOS/Source/event_groups.c **** 				}
 272:Middlewares/Third_Party/FreeRTOS/Source/event_groups.c **** 			}
 273:Middlewares/Third_Party/FreeRTOS/Source/event_groups.c **** 			taskEXIT_CRITICAL();
 274:Middlewares/Third_Party/FreeRTOS/Source/event_groups.c **** 
 275:Middlewares/Third_Party/FreeRTOS/Source/event_groups.c **** 			xTimeoutOccurred = pdTRUE;
 276:Middlewares/Third_Party/FreeRTOS/Source/event_groups.c **** 		}
 277:Middlewares/Third_Party/FreeRTOS/Source/event_groups.c **** 		else
 278:Middlewares/Third_Party/FreeRTOS/Source/event_groups.c **** 		{
 279:Middlewares/Third_Party/FreeRTOS/Source/event_groups.c **** 			/* The task unblocked because the bits were set. */
 280:Middlewares/Third_Party/FreeRTOS/Source/event_groups.c **** 		}
 281:Middlewares/Third_Party/FreeRTOS/Source/event_groups.c **** 
 282:Middlewares/Third_Party/FreeRTOS/Source/event_groups.c **** 		/* Control bits might be set as the task had blocked should not be
 283:Middlewares/Third_Party/FreeRTOS/Source/event_groups.c **** 		returned. */
 284:Middlewares/Third_Party/FreeRTOS/Source/event_groups.c **** 		uxReturn &= ~eventEVENT_BITS_CONTROL_BYTES;
 285:Middlewares/Third_Party/FreeRTOS/Source/event_groups.c **** 	}
 286:Middlewares/Third_Party/FreeRTOS/Source/event_groups.c **** 
 287:Middlewares/Third_Party/FreeRTOS/Source/event_groups.c **** 	traceEVENT_GROUP_SYNC_END( xEventGroup, uxBitsToSet, uxBitsToWaitFor, xTimeoutOccurred );
 288:Middlewares/Third_Party/FreeRTOS/Source/event_groups.c **** 
 289:Middlewares/Third_Party/FreeRTOS/Source/event_groups.c **** 	/* Prevent compiler warnings when trace macros are not used. */
 290:Middlewares/Third_Party/FreeRTOS/Source/event_groups.c **** 	( void ) xTimeoutOccurred;
 291:Middlewares/Third_Party/FreeRTOS/Source/event_groups.c **** 
 292:Middlewares/Third_Party/FreeRTOS/Source/event_groups.c **** 	return uxReturn;
 293:Middlewares/Third_Party/FreeRTOS/Source/event_groups.c **** }
 294:Middlewares/Third_Party/FreeRTOS/Source/event_groups.c **** /*-----------------------------------------------------------*/
 295:Middlewares/Third_Party/FreeRTOS/Source/event_groups.c **** 
 296:Middlewares/Third_Party/FreeRTOS/Source/event_groups.c **** EventBits_t xEventGroupWaitBits( EventGroupHandle_t xEventGroup, const EventBits_t uxBitsToWaitFor,
 297:Middlewares/Third_Party/FreeRTOS/Source/event_groups.c **** {
  79              		.loc 1 297 1 is_stmt 1 view -0
  80              		.cfi_startproc
  81              		@ args = 4, pretend = 0, frame = 0
  82              		@ frame_needed = 0, uses_anonymous_args = 0
  83              		.loc 1 297 1 is_stmt 0 view .LVU16
  84 0000 2DE9F047 		push	{r4, r5, r6, r7, r8, r9, r10, lr}
  85              	.LCFI1:
  86              		.cfi_def_cfa_offset 32
  87              		.cfi_offset 4, -32
  88              		.cfi_offset 5, -28
  89              		.cfi_offset 6, -24
  90              		.cfi_offset 7, -20
  91              		.cfi_offset 8, -16
  92              		.cfi_offset 9, -12
  93              		.cfi_offset 10, -8
  94              		.cfi_offset 14, -4
 298:Middlewares/Third_Party/FreeRTOS/Source/event_groups.c **** EventGroup_t *pxEventBits = ( EventGroup_t * ) xEventGroup;
  95              		.loc 1 298 1 is_stmt 1 view .LVU17
  96              	.LVL4:
 299:Middlewares/Third_Party/FreeRTOS/Source/event_groups.c **** EventBits_t uxReturn, uxControlBits = 0;
  97              		.loc 1 299 1 view .LVU18
 300:Middlewares/Third_Party/FreeRTOS/Source/event_groups.c **** BaseType_t xWaitConditionMet, xAlreadyYielded;
  98              		.loc 1 300 1 view .LVU19
 301:Middlewares/Third_Party/FreeRTOS/Source/event_groups.c **** BaseType_t xTimeoutOccurred = pdFALSE;
  99              		.loc 1 301 1 view .LVU20
 302:Middlewares/Third_Party/FreeRTOS/Source/event_groups.c **** 
ARM GAS  C:\Users\Johannes\AppData\Local\Temp\cci40EjN.s 			page 8


 303:Middlewares/Third_Party/FreeRTOS/Source/event_groups.c **** 	/* Check the user is not attempting to wait on the bits used by the kernel
 304:Middlewares/Third_Party/FreeRTOS/Source/event_groups.c **** 	itself, and that at least one bit is being requested. */
 305:Middlewares/Third_Party/FreeRTOS/Source/event_groups.c **** 	configASSERT( xEventGroup );
 100              		.loc 1 305 2 view .LVU21
 297:Middlewares/Third_Party/FreeRTOS/Source/event_groups.c **** EventGroup_t *pxEventBits = ( EventGroup_t * ) xEventGroup;
 101              		.loc 1 297 1 is_stmt 0 view .LVU22
 102 0004 DDF820A0 		ldr	r10, [sp, #32]
 103              		.loc 1 305 2 view .LVU23
 104 0008 A8B1     		cbz	r0, .L42
 105              		.loc 1 305 29 is_stmt 1 discriminator 2 view .LVU24
 306:Middlewares/Third_Party/FreeRTOS/Source/event_groups.c **** 	configASSERT( ( uxBitsToWaitFor & eventEVENT_BITS_CONTROL_BYTES ) == 0 );
 106              		.loc 1 306 2 discriminator 2 view .LVU25
 107 000a 11F07F46 		ands	r6, r1, #-16777216
 108 000e 09D1     		bne	.L43
 109              		.loc 1 306 74 discriminator 2 view .LVU26
 307:Middlewares/Third_Party/FreeRTOS/Source/event_groups.c **** 	configASSERT( uxBitsToWaitFor != 0 );
 110              		.loc 1 307 2 discriminator 2 view .LVU27
 111 0010 D1B9     		cbnz	r1, .L13
 112              		.loc 1 307 2 view .LVU28
 113              	.LBB52:
 114              	.LBI52:
 115              		.file 2 "Middlewares/Third_Party/FreeRTOS/Source/portable/GCC/ARM_CM3/portmacro.h"
   1:Middlewares/Third_Party/FreeRTOS/Source/portable/GCC/ARM_CM3/portmacro.h **** /*
   2:Middlewares/Third_Party/FreeRTOS/Source/portable/GCC/ARM_CM3/portmacro.h ****  * FreeRTOS Kernel V10.0.1
   3:Middlewares/Third_Party/FreeRTOS/Source/portable/GCC/ARM_CM3/portmacro.h ****  * Copyright (C) 2017 Amazon.com, Inc. or its affiliates.  All Rights Reserved.
   4:Middlewares/Third_Party/FreeRTOS/Source/portable/GCC/ARM_CM3/portmacro.h ****  *
   5:Middlewares/Third_Party/FreeRTOS/Source/portable/GCC/ARM_CM3/portmacro.h ****  * Permission is hereby granted, free of charge, to any person obtaining a copy of
   6:Middlewares/Third_Party/FreeRTOS/Source/portable/GCC/ARM_CM3/portmacro.h ****  * this software and associated documentation files (the "Software"), to deal in
   7:Middlewares/Third_Party/FreeRTOS/Source/portable/GCC/ARM_CM3/portmacro.h ****  * the Software without restriction, including without limitation the rights to
   8:Middlewares/Third_Party/FreeRTOS/Source/portable/GCC/ARM_CM3/portmacro.h ****  * use, copy, modify, merge, publish, distribute, sublicense, and/or sell copies of
   9:Middlewares/Third_Party/FreeRTOS/Source/portable/GCC/ARM_CM3/portmacro.h ****  * the Software, and to permit persons to whom the Software is furnished to do so,
  10:Middlewares/Third_Party/FreeRTOS/Source/portable/GCC/ARM_CM3/portmacro.h ****  * subject to the following conditions:
  11:Middlewares/Third_Party/FreeRTOS/Source/portable/GCC/ARM_CM3/portmacro.h ****  *
  12:Middlewares/Third_Party/FreeRTOS/Source/portable/GCC/ARM_CM3/portmacro.h ****  * The above copyright notice and this permission notice shall be included in all
  13:Middlewares/Third_Party/FreeRTOS/Source/portable/GCC/ARM_CM3/portmacro.h ****  * copies or substantial portions of the Software.
  14:Middlewares/Third_Party/FreeRTOS/Source/portable/GCC/ARM_CM3/portmacro.h ****  *
  15:Middlewares/Third_Party/FreeRTOS/Source/portable/GCC/ARM_CM3/portmacro.h ****  * THE SOFTWARE IS PROVIDED "AS IS", WITHOUT WARRANTY OF ANY KIND, EXPRESS OR
  16:Middlewares/Third_Party/FreeRTOS/Source/portable/GCC/ARM_CM3/portmacro.h ****  * IMPLIED, INCLUDING BUT NOT LIMITED TO THE WARRANTIES OF MERCHANTABILITY, FITNESS
  17:Middlewares/Third_Party/FreeRTOS/Source/portable/GCC/ARM_CM3/portmacro.h ****  * FOR A PARTICULAR PURPOSE AND NONINFRINGEMENT. IN NO EVENT SHALL THE AUTHORS OR
  18:Middlewares/Third_Party/FreeRTOS/Source/portable/GCC/ARM_CM3/portmacro.h ****  * COPYRIGHT HOLDERS BE LIABLE FOR ANY CLAIM, DAMAGES OR OTHER LIABILITY, WHETHER
  19:Middlewares/Third_Party/FreeRTOS/Source/portable/GCC/ARM_CM3/portmacro.h ****  * IN AN ACTION OF CONTRACT, TORT OR OTHERWISE, ARISING FROM, OUT OF OR IN
  20:Middlewares/Third_Party/FreeRTOS/Source/portable/GCC/ARM_CM3/portmacro.h ****  * CONNECTION WITH THE SOFTWARE OR THE USE OR OTHER DEALINGS IN THE SOFTWARE.
  21:Middlewares/Third_Party/FreeRTOS/Source/portable/GCC/ARM_CM3/portmacro.h ****  *
  22:Middlewares/Third_Party/FreeRTOS/Source/portable/GCC/ARM_CM3/portmacro.h ****  * http://www.FreeRTOS.org
  23:Middlewares/Third_Party/FreeRTOS/Source/portable/GCC/ARM_CM3/portmacro.h ****  * http://aws.amazon.com/freertos
  24:Middlewares/Third_Party/FreeRTOS/Source/portable/GCC/ARM_CM3/portmacro.h ****  *
  25:Middlewares/Third_Party/FreeRTOS/Source/portable/GCC/ARM_CM3/portmacro.h ****  * 1 tab == 4 spaces!
  26:Middlewares/Third_Party/FreeRTOS/Source/portable/GCC/ARM_CM3/portmacro.h ****  */
  27:Middlewares/Third_Party/FreeRTOS/Source/portable/GCC/ARM_CM3/portmacro.h **** 
  28:Middlewares/Third_Party/FreeRTOS/Source/portable/GCC/ARM_CM3/portmacro.h **** 
  29:Middlewares/Third_Party/FreeRTOS/Source/portable/GCC/ARM_CM3/portmacro.h **** #ifndef PORTMACRO_H
  30:Middlewares/Third_Party/FreeRTOS/Source/portable/GCC/ARM_CM3/portmacro.h **** #define PORTMACRO_H
  31:Middlewares/Third_Party/FreeRTOS/Source/portable/GCC/ARM_CM3/portmacro.h **** 
  32:Middlewares/Third_Party/FreeRTOS/Source/portable/GCC/ARM_CM3/portmacro.h **** #ifdef __cplusplus
  33:Middlewares/Third_Party/FreeRTOS/Source/portable/GCC/ARM_CM3/portmacro.h **** extern "C" {
  34:Middlewares/Third_Party/FreeRTOS/Source/portable/GCC/ARM_CM3/portmacro.h **** #endif
  35:Middlewares/Third_Party/FreeRTOS/Source/portable/GCC/ARM_CM3/portmacro.h **** 
ARM GAS  C:\Users\Johannes\AppData\Local\Temp\cci40EjN.s 			page 9


  36:Middlewares/Third_Party/FreeRTOS/Source/portable/GCC/ARM_CM3/portmacro.h **** /*-----------------------------------------------------------
  37:Middlewares/Third_Party/FreeRTOS/Source/portable/GCC/ARM_CM3/portmacro.h ****  * Port specific definitions.
  38:Middlewares/Third_Party/FreeRTOS/Source/portable/GCC/ARM_CM3/portmacro.h ****  *
  39:Middlewares/Third_Party/FreeRTOS/Source/portable/GCC/ARM_CM3/portmacro.h ****  * The settings in this file configure FreeRTOS correctly for the
  40:Middlewares/Third_Party/FreeRTOS/Source/portable/GCC/ARM_CM3/portmacro.h ****  * given hardware and compiler.
  41:Middlewares/Third_Party/FreeRTOS/Source/portable/GCC/ARM_CM3/portmacro.h ****  *
  42:Middlewares/Third_Party/FreeRTOS/Source/portable/GCC/ARM_CM3/portmacro.h ****  * These settings should not be altered.
  43:Middlewares/Third_Party/FreeRTOS/Source/portable/GCC/ARM_CM3/portmacro.h ****  *-----------------------------------------------------------
  44:Middlewares/Third_Party/FreeRTOS/Source/portable/GCC/ARM_CM3/portmacro.h ****  */
  45:Middlewares/Third_Party/FreeRTOS/Source/portable/GCC/ARM_CM3/portmacro.h **** 
  46:Middlewares/Third_Party/FreeRTOS/Source/portable/GCC/ARM_CM3/portmacro.h **** /* Type definitions. */
  47:Middlewares/Third_Party/FreeRTOS/Source/portable/GCC/ARM_CM3/portmacro.h **** #define portCHAR		char
  48:Middlewares/Third_Party/FreeRTOS/Source/portable/GCC/ARM_CM3/portmacro.h **** #define portFLOAT		float
  49:Middlewares/Third_Party/FreeRTOS/Source/portable/GCC/ARM_CM3/portmacro.h **** #define portDOUBLE		double
  50:Middlewares/Third_Party/FreeRTOS/Source/portable/GCC/ARM_CM3/portmacro.h **** #define portLONG		long
  51:Middlewares/Third_Party/FreeRTOS/Source/portable/GCC/ARM_CM3/portmacro.h **** #define portSHORT		short
  52:Middlewares/Third_Party/FreeRTOS/Source/portable/GCC/ARM_CM3/portmacro.h **** #define portSTACK_TYPE	uint32_t
  53:Middlewares/Third_Party/FreeRTOS/Source/portable/GCC/ARM_CM3/portmacro.h **** #define portBASE_TYPE	long
  54:Middlewares/Third_Party/FreeRTOS/Source/portable/GCC/ARM_CM3/portmacro.h **** 
  55:Middlewares/Third_Party/FreeRTOS/Source/portable/GCC/ARM_CM3/portmacro.h **** typedef portSTACK_TYPE StackType_t;
  56:Middlewares/Third_Party/FreeRTOS/Source/portable/GCC/ARM_CM3/portmacro.h **** typedef long BaseType_t;
  57:Middlewares/Third_Party/FreeRTOS/Source/portable/GCC/ARM_CM3/portmacro.h **** typedef unsigned long UBaseType_t;
  58:Middlewares/Third_Party/FreeRTOS/Source/portable/GCC/ARM_CM3/portmacro.h **** 
  59:Middlewares/Third_Party/FreeRTOS/Source/portable/GCC/ARM_CM3/portmacro.h **** #if( configUSE_16_BIT_TICKS == 1 )
  60:Middlewares/Third_Party/FreeRTOS/Source/portable/GCC/ARM_CM3/portmacro.h **** 	typedef uint16_t TickType_t;
  61:Middlewares/Third_Party/FreeRTOS/Source/portable/GCC/ARM_CM3/portmacro.h **** 	#define portMAX_DELAY ( TickType_t ) 0xffff
  62:Middlewares/Third_Party/FreeRTOS/Source/portable/GCC/ARM_CM3/portmacro.h **** #else
  63:Middlewares/Third_Party/FreeRTOS/Source/portable/GCC/ARM_CM3/portmacro.h **** 	typedef uint32_t TickType_t;
  64:Middlewares/Third_Party/FreeRTOS/Source/portable/GCC/ARM_CM3/portmacro.h **** 	#define portMAX_DELAY ( TickType_t ) 0xffffffffUL
  65:Middlewares/Third_Party/FreeRTOS/Source/portable/GCC/ARM_CM3/portmacro.h **** 
  66:Middlewares/Third_Party/FreeRTOS/Source/portable/GCC/ARM_CM3/portmacro.h **** 	/* 32-bit tick type on a 32-bit architecture, so reads of the tick count do
  67:Middlewares/Third_Party/FreeRTOS/Source/portable/GCC/ARM_CM3/portmacro.h **** 	not need to be guarded with a critical section. */
  68:Middlewares/Third_Party/FreeRTOS/Source/portable/GCC/ARM_CM3/portmacro.h **** 	#define portTICK_TYPE_IS_ATOMIC 1
  69:Middlewares/Third_Party/FreeRTOS/Source/portable/GCC/ARM_CM3/portmacro.h **** #endif
  70:Middlewares/Third_Party/FreeRTOS/Source/portable/GCC/ARM_CM3/portmacro.h **** /*-----------------------------------------------------------*/
  71:Middlewares/Third_Party/FreeRTOS/Source/portable/GCC/ARM_CM3/portmacro.h **** 
  72:Middlewares/Third_Party/FreeRTOS/Source/portable/GCC/ARM_CM3/portmacro.h **** /* Architecture specifics. */
  73:Middlewares/Third_Party/FreeRTOS/Source/portable/GCC/ARM_CM3/portmacro.h **** #define portSTACK_GROWTH			( -1 )
  74:Middlewares/Third_Party/FreeRTOS/Source/portable/GCC/ARM_CM3/portmacro.h **** #define portTICK_PERIOD_MS			( ( TickType_t ) 1000 / configTICK_RATE_HZ )
  75:Middlewares/Third_Party/FreeRTOS/Source/portable/GCC/ARM_CM3/portmacro.h **** #define portBYTE_ALIGNMENT			8
  76:Middlewares/Third_Party/FreeRTOS/Source/portable/GCC/ARM_CM3/portmacro.h **** /*-----------------------------------------------------------*/
  77:Middlewares/Third_Party/FreeRTOS/Source/portable/GCC/ARM_CM3/portmacro.h **** 
  78:Middlewares/Third_Party/FreeRTOS/Source/portable/GCC/ARM_CM3/portmacro.h **** /* Scheduler utilities. */
  79:Middlewares/Third_Party/FreeRTOS/Source/portable/GCC/ARM_CM3/portmacro.h **** #define portYIELD() 															\
  80:Middlewares/Third_Party/FreeRTOS/Source/portable/GCC/ARM_CM3/portmacro.h **** {																				\
  81:Middlewares/Third_Party/FreeRTOS/Source/portable/GCC/ARM_CM3/portmacro.h **** 	/* Set a PendSV to request a context switch. */								\
  82:Middlewares/Third_Party/FreeRTOS/Source/portable/GCC/ARM_CM3/portmacro.h **** 	portNVIC_INT_CTRL_REG = portNVIC_PENDSVSET_BIT;								\
  83:Middlewares/Third_Party/FreeRTOS/Source/portable/GCC/ARM_CM3/portmacro.h **** 																				\
  84:Middlewares/Third_Party/FreeRTOS/Source/portable/GCC/ARM_CM3/portmacro.h **** 	/* Barriers are normally not required but do ensure the code is completely	\
  85:Middlewares/Third_Party/FreeRTOS/Source/portable/GCC/ARM_CM3/portmacro.h **** 	within the specified behaviour for the architecture. */						\
  86:Middlewares/Third_Party/FreeRTOS/Source/portable/GCC/ARM_CM3/portmacro.h **** 	__asm volatile( "dsb" ::: "memory" );										\
  87:Middlewares/Third_Party/FreeRTOS/Source/portable/GCC/ARM_CM3/portmacro.h **** 	__asm volatile( "isb" );													\
  88:Middlewares/Third_Party/FreeRTOS/Source/portable/GCC/ARM_CM3/portmacro.h **** }
  89:Middlewares/Third_Party/FreeRTOS/Source/portable/GCC/ARM_CM3/portmacro.h **** 
  90:Middlewares/Third_Party/FreeRTOS/Source/portable/GCC/ARM_CM3/portmacro.h **** #define portNVIC_INT_CTRL_REG		( * ( ( volatile uint32_t * ) 0xe000ed04 ) )
  91:Middlewares/Third_Party/FreeRTOS/Source/portable/GCC/ARM_CM3/portmacro.h **** #define portNVIC_PENDSVSET_BIT		( 1UL << 28UL )
  92:Middlewares/Third_Party/FreeRTOS/Source/portable/GCC/ARM_CM3/portmacro.h **** #define portEND_SWITCHING_ISR( xSwitchRequired ) if( xSwitchRequired != pdFALSE ) portYIELD()
ARM GAS  C:\Users\Johannes\AppData\Local\Temp\cci40EjN.s 			page 10


  93:Middlewares/Third_Party/FreeRTOS/Source/portable/GCC/ARM_CM3/portmacro.h **** #define portYIELD_FROM_ISR( x ) portEND_SWITCHING_ISR( x )
  94:Middlewares/Third_Party/FreeRTOS/Source/portable/GCC/ARM_CM3/portmacro.h **** /*-----------------------------------------------------------*/
  95:Middlewares/Third_Party/FreeRTOS/Source/portable/GCC/ARM_CM3/portmacro.h **** 
  96:Middlewares/Third_Party/FreeRTOS/Source/portable/GCC/ARM_CM3/portmacro.h **** /* Critical section management. */
  97:Middlewares/Third_Party/FreeRTOS/Source/portable/GCC/ARM_CM3/portmacro.h **** extern void vPortEnterCritical( void );
  98:Middlewares/Third_Party/FreeRTOS/Source/portable/GCC/ARM_CM3/portmacro.h **** extern void vPortExitCritical( void );
  99:Middlewares/Third_Party/FreeRTOS/Source/portable/GCC/ARM_CM3/portmacro.h **** #define portSET_INTERRUPT_MASK_FROM_ISR()		ulPortRaiseBASEPRI()
 100:Middlewares/Third_Party/FreeRTOS/Source/portable/GCC/ARM_CM3/portmacro.h **** #define portCLEAR_INTERRUPT_MASK_FROM_ISR(x)	vPortSetBASEPRI(x)
 101:Middlewares/Third_Party/FreeRTOS/Source/portable/GCC/ARM_CM3/portmacro.h **** #define portDISABLE_INTERRUPTS()				vPortRaiseBASEPRI()
 102:Middlewares/Third_Party/FreeRTOS/Source/portable/GCC/ARM_CM3/portmacro.h **** #define portENABLE_INTERRUPTS()					vPortSetBASEPRI(0)
 103:Middlewares/Third_Party/FreeRTOS/Source/portable/GCC/ARM_CM3/portmacro.h **** #define portENTER_CRITICAL()					vPortEnterCritical()
 104:Middlewares/Third_Party/FreeRTOS/Source/portable/GCC/ARM_CM3/portmacro.h **** #define portEXIT_CRITICAL()						vPortExitCritical()
 105:Middlewares/Third_Party/FreeRTOS/Source/portable/GCC/ARM_CM3/portmacro.h **** 
 106:Middlewares/Third_Party/FreeRTOS/Source/portable/GCC/ARM_CM3/portmacro.h **** /*-----------------------------------------------------------*/
 107:Middlewares/Third_Party/FreeRTOS/Source/portable/GCC/ARM_CM3/portmacro.h **** 
 108:Middlewares/Third_Party/FreeRTOS/Source/portable/GCC/ARM_CM3/portmacro.h **** /* Task function macros as described on the FreeRTOS.org WEB site.  These are
 109:Middlewares/Third_Party/FreeRTOS/Source/portable/GCC/ARM_CM3/portmacro.h **** not necessary for to use this port.  They are defined so the common demo files
 110:Middlewares/Third_Party/FreeRTOS/Source/portable/GCC/ARM_CM3/portmacro.h **** (which build with all the ports) will build. */
 111:Middlewares/Third_Party/FreeRTOS/Source/portable/GCC/ARM_CM3/portmacro.h **** #define portTASK_FUNCTION_PROTO( vFunction, pvParameters ) void vFunction( void *pvParameters )
 112:Middlewares/Third_Party/FreeRTOS/Source/portable/GCC/ARM_CM3/portmacro.h **** #define portTASK_FUNCTION( vFunction, pvParameters ) void vFunction( void *pvParameters )
 113:Middlewares/Third_Party/FreeRTOS/Source/portable/GCC/ARM_CM3/portmacro.h **** /*-----------------------------------------------------------*/
 114:Middlewares/Third_Party/FreeRTOS/Source/portable/GCC/ARM_CM3/portmacro.h **** 
 115:Middlewares/Third_Party/FreeRTOS/Source/portable/GCC/ARM_CM3/portmacro.h **** /* Tickless idle/low power functionality. */
 116:Middlewares/Third_Party/FreeRTOS/Source/portable/GCC/ARM_CM3/portmacro.h **** #ifndef portSUPPRESS_TICKS_AND_SLEEP
 117:Middlewares/Third_Party/FreeRTOS/Source/portable/GCC/ARM_CM3/portmacro.h **** 	extern void vPortSuppressTicksAndSleep( TickType_t xExpectedIdleTime );
 118:Middlewares/Third_Party/FreeRTOS/Source/portable/GCC/ARM_CM3/portmacro.h **** 	#define portSUPPRESS_TICKS_AND_SLEEP( xExpectedIdleTime ) vPortSuppressTicksAndSleep( xExpectedIdl
 119:Middlewares/Third_Party/FreeRTOS/Source/portable/GCC/ARM_CM3/portmacro.h **** #endif
 120:Middlewares/Third_Party/FreeRTOS/Source/portable/GCC/ARM_CM3/portmacro.h **** /*-----------------------------------------------------------*/
 121:Middlewares/Third_Party/FreeRTOS/Source/portable/GCC/ARM_CM3/portmacro.h **** 
 122:Middlewares/Third_Party/FreeRTOS/Source/portable/GCC/ARM_CM3/portmacro.h **** /* Architecture specific optimisations. */
 123:Middlewares/Third_Party/FreeRTOS/Source/portable/GCC/ARM_CM3/portmacro.h **** #ifndef configUSE_PORT_OPTIMISED_TASK_SELECTION
 124:Middlewares/Third_Party/FreeRTOS/Source/portable/GCC/ARM_CM3/portmacro.h **** 	#define configUSE_PORT_OPTIMISED_TASK_SELECTION 1
 125:Middlewares/Third_Party/FreeRTOS/Source/portable/GCC/ARM_CM3/portmacro.h **** #endif
 126:Middlewares/Third_Party/FreeRTOS/Source/portable/GCC/ARM_CM3/portmacro.h **** 
 127:Middlewares/Third_Party/FreeRTOS/Source/portable/GCC/ARM_CM3/portmacro.h **** #if configUSE_PORT_OPTIMISED_TASK_SELECTION == 1
 128:Middlewares/Third_Party/FreeRTOS/Source/portable/GCC/ARM_CM3/portmacro.h **** 
 129:Middlewares/Third_Party/FreeRTOS/Source/portable/GCC/ARM_CM3/portmacro.h **** 	/* Generic helper function. */
 130:Middlewares/Third_Party/FreeRTOS/Source/portable/GCC/ARM_CM3/portmacro.h **** 	__attribute__( ( always_inline ) ) static inline uint8_t ucPortCountLeadingZeros( uint32_t ulBitma
 131:Middlewares/Third_Party/FreeRTOS/Source/portable/GCC/ARM_CM3/portmacro.h **** 	{
 132:Middlewares/Third_Party/FreeRTOS/Source/portable/GCC/ARM_CM3/portmacro.h **** 	uint8_t ucReturn;
 133:Middlewares/Third_Party/FreeRTOS/Source/portable/GCC/ARM_CM3/portmacro.h **** 
 134:Middlewares/Third_Party/FreeRTOS/Source/portable/GCC/ARM_CM3/portmacro.h **** 		__asm volatile ( "clz %0, %1" : "=r" ( ucReturn ) : "r" ( ulBitmap ) : "memory" );
 135:Middlewares/Third_Party/FreeRTOS/Source/portable/GCC/ARM_CM3/portmacro.h **** 		return ucReturn;
 136:Middlewares/Third_Party/FreeRTOS/Source/portable/GCC/ARM_CM3/portmacro.h **** 	}
 137:Middlewares/Third_Party/FreeRTOS/Source/portable/GCC/ARM_CM3/portmacro.h **** 
 138:Middlewares/Third_Party/FreeRTOS/Source/portable/GCC/ARM_CM3/portmacro.h **** 	/* Check the configuration. */
 139:Middlewares/Third_Party/FreeRTOS/Source/portable/GCC/ARM_CM3/portmacro.h **** 	#if( configMAX_PRIORITIES > 32 )
 140:Middlewares/Third_Party/FreeRTOS/Source/portable/GCC/ARM_CM3/portmacro.h **** 		#error configUSE_PORT_OPTIMISED_TASK_SELECTION can only be set to 1 when configMAX_PRIORITIES is 
 141:Middlewares/Third_Party/FreeRTOS/Source/portable/GCC/ARM_CM3/portmacro.h **** 	#endif
 142:Middlewares/Third_Party/FreeRTOS/Source/portable/GCC/ARM_CM3/portmacro.h **** 
 143:Middlewares/Third_Party/FreeRTOS/Source/portable/GCC/ARM_CM3/portmacro.h **** 	/* Store/clear the ready priorities in a bit map. */
 144:Middlewares/Third_Party/FreeRTOS/Source/portable/GCC/ARM_CM3/portmacro.h **** 	#define portRECORD_READY_PRIORITY( uxPriority, uxReadyPriorities ) ( uxReadyPriorities ) |= ( 1UL 
 145:Middlewares/Third_Party/FreeRTOS/Source/portable/GCC/ARM_CM3/portmacro.h **** 	#define portRESET_READY_PRIORITY( uxPriority, uxReadyPriorities ) ( uxReadyPriorities ) &= ~( 1UL 
 146:Middlewares/Third_Party/FreeRTOS/Source/portable/GCC/ARM_CM3/portmacro.h **** 
 147:Middlewares/Third_Party/FreeRTOS/Source/portable/GCC/ARM_CM3/portmacro.h **** 	/*-----------------------------------------------------------*/
 148:Middlewares/Third_Party/FreeRTOS/Source/portable/GCC/ARM_CM3/portmacro.h **** 
 149:Middlewares/Third_Party/FreeRTOS/Source/portable/GCC/ARM_CM3/portmacro.h **** 	#define portGET_HIGHEST_PRIORITY( uxTopPriority, uxReadyPriorities ) uxTopPriority = ( 31UL - ( ui
ARM GAS  C:\Users\Johannes\AppData\Local\Temp\cci40EjN.s 			page 11


 150:Middlewares/Third_Party/FreeRTOS/Source/portable/GCC/ARM_CM3/portmacro.h **** 
 151:Middlewares/Third_Party/FreeRTOS/Source/portable/GCC/ARM_CM3/portmacro.h **** #endif /* configUSE_PORT_OPTIMISED_TASK_SELECTION */
 152:Middlewares/Third_Party/FreeRTOS/Source/portable/GCC/ARM_CM3/portmacro.h **** 
 153:Middlewares/Third_Party/FreeRTOS/Source/portable/GCC/ARM_CM3/portmacro.h **** /*-----------------------------------------------------------*/
 154:Middlewares/Third_Party/FreeRTOS/Source/portable/GCC/ARM_CM3/portmacro.h **** 
 155:Middlewares/Third_Party/FreeRTOS/Source/portable/GCC/ARM_CM3/portmacro.h **** #ifdef configASSERT
 156:Middlewares/Third_Party/FreeRTOS/Source/portable/GCC/ARM_CM3/portmacro.h **** 	void vPortValidateInterruptPriority( void );
 157:Middlewares/Third_Party/FreeRTOS/Source/portable/GCC/ARM_CM3/portmacro.h **** 	#define portASSERT_IF_INTERRUPT_PRIORITY_INVALID() 	vPortValidateInterruptPriority()
 158:Middlewares/Third_Party/FreeRTOS/Source/portable/GCC/ARM_CM3/portmacro.h **** #endif
 159:Middlewares/Third_Party/FreeRTOS/Source/portable/GCC/ARM_CM3/portmacro.h **** 
 160:Middlewares/Third_Party/FreeRTOS/Source/portable/GCC/ARM_CM3/portmacro.h **** /* portNOP() is not required by this port. */
 161:Middlewares/Third_Party/FreeRTOS/Source/portable/GCC/ARM_CM3/portmacro.h **** #define portNOP()
 162:Middlewares/Third_Party/FreeRTOS/Source/portable/GCC/ARM_CM3/portmacro.h **** 
 163:Middlewares/Third_Party/FreeRTOS/Source/portable/GCC/ARM_CM3/portmacro.h **** #define portINLINE	__inline
 164:Middlewares/Third_Party/FreeRTOS/Source/portable/GCC/ARM_CM3/portmacro.h **** 
 165:Middlewares/Third_Party/FreeRTOS/Source/portable/GCC/ARM_CM3/portmacro.h **** #ifndef portFORCE_INLINE
 166:Middlewares/Third_Party/FreeRTOS/Source/portable/GCC/ARM_CM3/portmacro.h **** 	#define portFORCE_INLINE inline __attribute__(( always_inline))
 167:Middlewares/Third_Party/FreeRTOS/Source/portable/GCC/ARM_CM3/portmacro.h **** #endif
 168:Middlewares/Third_Party/FreeRTOS/Source/portable/GCC/ARM_CM3/portmacro.h **** 
 169:Middlewares/Third_Party/FreeRTOS/Source/portable/GCC/ARM_CM3/portmacro.h **** portFORCE_INLINE static BaseType_t xPortIsInsideInterrupt( void )
 170:Middlewares/Third_Party/FreeRTOS/Source/portable/GCC/ARM_CM3/portmacro.h **** {
 171:Middlewares/Third_Party/FreeRTOS/Source/portable/GCC/ARM_CM3/portmacro.h **** uint32_t ulCurrentInterrupt;
 172:Middlewares/Third_Party/FreeRTOS/Source/portable/GCC/ARM_CM3/portmacro.h **** BaseType_t xReturn;
 173:Middlewares/Third_Party/FreeRTOS/Source/portable/GCC/ARM_CM3/portmacro.h **** 
 174:Middlewares/Third_Party/FreeRTOS/Source/portable/GCC/ARM_CM3/portmacro.h **** 	/* Obtain the number of the currently executing interrupt. */
 175:Middlewares/Third_Party/FreeRTOS/Source/portable/GCC/ARM_CM3/portmacro.h **** 	__asm volatile( "mrs %0, ipsr" : "=r"( ulCurrentInterrupt ) :: "memory" );
 176:Middlewares/Third_Party/FreeRTOS/Source/portable/GCC/ARM_CM3/portmacro.h **** 
 177:Middlewares/Third_Party/FreeRTOS/Source/portable/GCC/ARM_CM3/portmacro.h **** 	if( ulCurrentInterrupt == 0 )
 178:Middlewares/Third_Party/FreeRTOS/Source/portable/GCC/ARM_CM3/portmacro.h **** 	{
 179:Middlewares/Third_Party/FreeRTOS/Source/portable/GCC/ARM_CM3/portmacro.h **** 		xReturn = pdFALSE;
 180:Middlewares/Third_Party/FreeRTOS/Source/portable/GCC/ARM_CM3/portmacro.h **** 	}
 181:Middlewares/Third_Party/FreeRTOS/Source/portable/GCC/ARM_CM3/portmacro.h **** 	else
 182:Middlewares/Third_Party/FreeRTOS/Source/portable/GCC/ARM_CM3/portmacro.h **** 	{
 183:Middlewares/Third_Party/FreeRTOS/Source/portable/GCC/ARM_CM3/portmacro.h **** 		xReturn = pdTRUE;
 184:Middlewares/Third_Party/FreeRTOS/Source/portable/GCC/ARM_CM3/portmacro.h **** 	}
 185:Middlewares/Third_Party/FreeRTOS/Source/portable/GCC/ARM_CM3/portmacro.h **** 
 186:Middlewares/Third_Party/FreeRTOS/Source/portable/GCC/ARM_CM3/portmacro.h **** 	return xReturn;
 187:Middlewares/Third_Party/FreeRTOS/Source/portable/GCC/ARM_CM3/portmacro.h **** }
 188:Middlewares/Third_Party/FreeRTOS/Source/portable/GCC/ARM_CM3/portmacro.h **** 
 189:Middlewares/Third_Party/FreeRTOS/Source/portable/GCC/ARM_CM3/portmacro.h **** /*-----------------------------------------------------------*/
 190:Middlewares/Third_Party/FreeRTOS/Source/portable/GCC/ARM_CM3/portmacro.h **** 
 191:Middlewares/Third_Party/FreeRTOS/Source/portable/GCC/ARM_CM3/portmacro.h **** portFORCE_INLINE static void vPortRaiseBASEPRI( void )
 116              		.loc 2 191 30 view .LVU29
 117              	.LBB53:
 192:Middlewares/Third_Party/FreeRTOS/Source/portable/GCC/ARM_CM3/portmacro.h **** {
 193:Middlewares/Third_Party/FreeRTOS/Source/portable/GCC/ARM_CM3/portmacro.h **** uint32_t ulNewBASEPRI;
 118              		.loc 2 193 1 view .LVU30
 194:Middlewares/Third_Party/FreeRTOS/Source/portable/GCC/ARM_CM3/portmacro.h **** 
 195:Middlewares/Third_Party/FreeRTOS/Source/portable/GCC/ARM_CM3/portmacro.h **** 	__asm volatile
 119              		.loc 2 195 2 view .LVU31
 120              		.syntax unified
 121              	@ 195 "Middlewares/Third_Party/FreeRTOS/Source/portable/GCC/ARM_CM3/portmacro.h" 1
 122 0012 4FF05003 			mov r3, #80												
 123 0016 83F31188 		msr basepri, r3											
 124 001a BFF36F8F 		isb														
 125 001e BFF34F8F 		dsb														
 126              	
ARM GAS  C:\Users\Johannes\AppData\Local\Temp\cci40EjN.s 			page 12


 127              	@ 0 "" 2
 128              	.LVL5:
 129              		.thumb
 130              		.syntax unified
 131              	.L14:
 132              		.loc 2 195 2 is_stmt 0 view .LVU32
 133              	.LBE53:
 134              	.LBE52:
 135              		.loc 1 307 2 is_stmt 1 discriminator 3 view .LVU33
 136              		.loc 1 307 2 discriminator 3 view .LVU34
 137              		.loc 1 307 2 discriminator 3 view .LVU35
 138              		.loc 1 307 2 discriminator 3 view .LVU36
 139 0022 FEE7     		b	.L14
 140              	.LVL6:
 141              	.L43:
 306:Middlewares/Third_Party/FreeRTOS/Source/event_groups.c **** 	configASSERT( uxBitsToWaitFor != 0 );
 142              		.loc 1 306 2 view .LVU37
 143              	.LBB54:
 144              	.LBI54:
 191:Middlewares/Third_Party/FreeRTOS/Source/portable/GCC/ARM_CM3/portmacro.h **** {
 145              		.loc 2 191 30 view .LVU38
 146              	.LBB55:
 193:Middlewares/Third_Party/FreeRTOS/Source/portable/GCC/ARM_CM3/portmacro.h **** 
 147              		.loc 2 193 1 view .LVU39
 148              		.loc 2 195 2 view .LVU40
 149              		.syntax unified
 150              	@ 195 "Middlewares/Third_Party/FreeRTOS/Source/portable/GCC/ARM_CM3/portmacro.h" 1
 151 0024 4FF05003 			mov r3, #80												
 152 0028 83F31188 		msr basepri, r3											
 153 002c BFF36F8F 		isb														
 154 0030 BFF34F8F 		dsb														
 155              	
 156              	@ 0 "" 2
 157              	.LVL7:
 158              		.thumb
 159              		.syntax unified
 160              	.L12:
 161              		.loc 2 195 2 is_stmt 0 view .LVU41
 162              	.LBE55:
 163              	.LBE54:
 306:Middlewares/Third_Party/FreeRTOS/Source/event_groups.c **** 	configASSERT( uxBitsToWaitFor != 0 );
 164              		.loc 1 306 2 is_stmt 1 discriminator 2 view .LVU42
 306:Middlewares/Third_Party/FreeRTOS/Source/event_groups.c **** 	configASSERT( uxBitsToWaitFor != 0 );
 165              		.loc 1 306 2 discriminator 2 view .LVU43
 306:Middlewares/Third_Party/FreeRTOS/Source/event_groups.c **** 	configASSERT( uxBitsToWaitFor != 0 );
 166              		.loc 1 306 2 discriminator 2 view .LVU44
 306:Middlewares/Third_Party/FreeRTOS/Source/event_groups.c **** 	configASSERT( uxBitsToWaitFor != 0 );
 167              		.loc 1 306 2 discriminator 2 view .LVU45
 168 0034 FEE7     		b	.L12
 169              	.LVL8:
 170              	.L42:
 305:Middlewares/Third_Party/FreeRTOS/Source/event_groups.c **** 	configASSERT( ( uxBitsToWaitFor & eventEVENT_BITS_CONTROL_BYTES ) == 0 );
 171              		.loc 1 305 2 view .LVU46
 172              	.LBB56:
 173              	.LBI56:
 191:Middlewares/Third_Party/FreeRTOS/Source/portable/GCC/ARM_CM3/portmacro.h **** {
 174              		.loc 2 191 30 view .LVU47
ARM GAS  C:\Users\Johannes\AppData\Local\Temp\cci40EjN.s 			page 13


 175              	.LBB57:
 193:Middlewares/Third_Party/FreeRTOS/Source/portable/GCC/ARM_CM3/portmacro.h **** 
 176              		.loc 2 193 1 view .LVU48
 177              		.loc 2 195 2 view .LVU49
 178              		.syntax unified
 179              	@ 195 "Middlewares/Third_Party/FreeRTOS/Source/portable/GCC/ARM_CM3/portmacro.h" 1
 180 0036 4FF05003 			mov r3, #80												
 181 003a 83F31188 		msr basepri, r3											
 182 003e BFF36F8F 		isb														
 183 0042 BFF34F8F 		dsb														
 184              	
 185              	@ 0 "" 2
 186              	.LVL9:
 187              		.thumb
 188              		.syntax unified
 189              	.L10:
 190              		.loc 2 195 2 is_stmt 0 view .LVU50
 191              	.LBE57:
 192              	.LBE56:
 305:Middlewares/Third_Party/FreeRTOS/Source/event_groups.c **** 	configASSERT( ( uxBitsToWaitFor & eventEVENT_BITS_CONTROL_BYTES ) == 0 );
 193              		.loc 1 305 2 is_stmt 1 discriminator 1 view .LVU51
 305:Middlewares/Third_Party/FreeRTOS/Source/event_groups.c **** 	configASSERT( ( uxBitsToWaitFor & eventEVENT_BITS_CONTROL_BYTES ) == 0 );
 194              		.loc 1 305 2 discriminator 1 view .LVU52
 305:Middlewares/Third_Party/FreeRTOS/Source/event_groups.c **** 	configASSERT( ( uxBitsToWaitFor & eventEVENT_BITS_CONTROL_BYTES ) == 0 );
 195              		.loc 1 305 2 discriminator 1 view .LVU53
 305:Middlewares/Third_Party/FreeRTOS/Source/event_groups.c **** 	configASSERT( ( uxBitsToWaitFor & eventEVENT_BITS_CONTROL_BYTES ) == 0 );
 196              		.loc 1 305 2 discriminator 1 view .LVU54
 197 0046 FEE7     		b	.L10
 198              	.LVL10:
 199              	.L13:
 200              		.loc 1 307 38 discriminator 2 view .LVU55
 308:Middlewares/Third_Party/FreeRTOS/Source/event_groups.c **** 	#if ( ( INCLUDE_xTaskGetSchedulerState == 1 ) || ( configUSE_TIMERS == 1 ) )
 309:Middlewares/Third_Party/FreeRTOS/Source/event_groups.c **** 	{
 310:Middlewares/Third_Party/FreeRTOS/Source/event_groups.c **** 		configASSERT( !( ( xTaskGetSchedulerState() == taskSCHEDULER_SUSPENDED ) && ( xTicksToWait != 0 )
 201              		.loc 1 310 3 discriminator 2 view .LVU56
 202 0048 0746     		mov	r7, r0
 203 004a 9946     		mov	r9, r3
 204 004c 9046     		mov	r8, r2
 205 004e 0C46     		mov	r4, r1
 206 0050 FFF7FEFF 		bl	xTaskGetSchedulerState
 207              	.LVL11:
 208              		.loc 1 310 3 is_stmt 0 discriminator 2 view .LVU57
 209 0054 10B9     		cbnz	r0, .L15
 210              		.loc 1 310 3 discriminator 2 view .LVU58
 211 0056 BAF1000F 		cmp	r10, #0
 212 005a 2FD1     		bne	.L44
 213              	.L15:
 214              		.loc 1 310 104 is_stmt 1 discriminator 8 view .LVU59
 311:Middlewares/Third_Party/FreeRTOS/Source/event_groups.c **** 	}
 312:Middlewares/Third_Party/FreeRTOS/Source/event_groups.c **** 	#endif
 313:Middlewares/Third_Party/FreeRTOS/Source/event_groups.c **** 
 314:Middlewares/Third_Party/FreeRTOS/Source/event_groups.c **** 	vTaskSuspendAll();
 215              		.loc 1 314 2 discriminator 8 view .LVU60
 216 005c FFF7FEFF 		bl	vTaskSuspendAll
 217              	.LVL12:
 218              	.LBB58:
 315:Middlewares/Third_Party/FreeRTOS/Source/event_groups.c **** 	{
ARM GAS  C:\Users\Johannes\AppData\Local\Temp\cci40EjN.s 			page 14


 316:Middlewares/Third_Party/FreeRTOS/Source/event_groups.c **** 		const EventBits_t uxCurrentEventBits = pxEventBits->uxEventBits;
 219              		.loc 1 316 3 discriminator 8 view .LVU61
 220              		.loc 1 316 21 is_stmt 0 discriminator 8 view .LVU62
 221 0060 3D68     		ldr	r5, [r7]
 222              	.LVL13:
 317:Middlewares/Third_Party/FreeRTOS/Source/event_groups.c **** 
 318:Middlewares/Third_Party/FreeRTOS/Source/event_groups.c **** 		/* Check to see if the wait condition is already met or not. */
 319:Middlewares/Third_Party/FreeRTOS/Source/event_groups.c **** 		xWaitConditionMet = prvTestWaitCondition( uxCurrentEventBits, uxBitsToWaitFor, xWaitForAllBits );
 223              		.loc 1 319 3 is_stmt 1 discriminator 8 view .LVU63
 224              	.LBB59:
 225              	.LBI59:
 320:Middlewares/Third_Party/FreeRTOS/Source/event_groups.c **** 
 321:Middlewares/Third_Party/FreeRTOS/Source/event_groups.c **** 		if( xWaitConditionMet != pdFALSE )
 322:Middlewares/Third_Party/FreeRTOS/Source/event_groups.c **** 		{
 323:Middlewares/Third_Party/FreeRTOS/Source/event_groups.c **** 			/* The wait condition has already been met so there is no need to
 324:Middlewares/Third_Party/FreeRTOS/Source/event_groups.c **** 			block. */
 325:Middlewares/Third_Party/FreeRTOS/Source/event_groups.c **** 			uxReturn = uxCurrentEventBits;
 326:Middlewares/Third_Party/FreeRTOS/Source/event_groups.c **** 			xTicksToWait = ( TickType_t ) 0;
 327:Middlewares/Third_Party/FreeRTOS/Source/event_groups.c **** 
 328:Middlewares/Third_Party/FreeRTOS/Source/event_groups.c **** 			/* Clear the wait bits if requested to do so. */
 329:Middlewares/Third_Party/FreeRTOS/Source/event_groups.c **** 			if( xClearOnExit != pdFALSE )
 330:Middlewares/Third_Party/FreeRTOS/Source/event_groups.c **** 			{
 331:Middlewares/Third_Party/FreeRTOS/Source/event_groups.c **** 				pxEventBits->uxEventBits &= ~uxBitsToWaitFor;
 332:Middlewares/Third_Party/FreeRTOS/Source/event_groups.c **** 			}
 333:Middlewares/Third_Party/FreeRTOS/Source/event_groups.c **** 			else
 334:Middlewares/Third_Party/FreeRTOS/Source/event_groups.c **** 			{
 335:Middlewares/Third_Party/FreeRTOS/Source/event_groups.c **** 				mtCOVERAGE_TEST_MARKER();
 336:Middlewares/Third_Party/FreeRTOS/Source/event_groups.c **** 			}
 337:Middlewares/Third_Party/FreeRTOS/Source/event_groups.c **** 		}
 338:Middlewares/Third_Party/FreeRTOS/Source/event_groups.c **** 		else if( xTicksToWait == ( TickType_t ) 0 )
 339:Middlewares/Third_Party/FreeRTOS/Source/event_groups.c **** 		{
 340:Middlewares/Third_Party/FreeRTOS/Source/event_groups.c **** 			/* The wait condition has not been met, but no block time was
 341:Middlewares/Third_Party/FreeRTOS/Source/event_groups.c **** 			specified, so just return the current value. */
 342:Middlewares/Third_Party/FreeRTOS/Source/event_groups.c **** 			uxReturn = uxCurrentEventBits;
 343:Middlewares/Third_Party/FreeRTOS/Source/event_groups.c **** 			xTimeoutOccurred = pdTRUE;
 344:Middlewares/Third_Party/FreeRTOS/Source/event_groups.c **** 		}
 345:Middlewares/Third_Party/FreeRTOS/Source/event_groups.c **** 		else
 346:Middlewares/Third_Party/FreeRTOS/Source/event_groups.c **** 		{
 347:Middlewares/Third_Party/FreeRTOS/Source/event_groups.c **** 			/* The task is going to block to wait for its required bits to be
 348:Middlewares/Third_Party/FreeRTOS/Source/event_groups.c **** 			set.  uxControlBits are used to remember the specified behaviour of
 349:Middlewares/Third_Party/FreeRTOS/Source/event_groups.c **** 			this call to xEventGroupWaitBits() - for use when the event bits
 350:Middlewares/Third_Party/FreeRTOS/Source/event_groups.c **** 			unblock the task. */
 351:Middlewares/Third_Party/FreeRTOS/Source/event_groups.c **** 			if( xClearOnExit != pdFALSE )
 352:Middlewares/Third_Party/FreeRTOS/Source/event_groups.c **** 			{
 353:Middlewares/Third_Party/FreeRTOS/Source/event_groups.c **** 				uxControlBits |= eventCLEAR_EVENTS_ON_EXIT_BIT;
 354:Middlewares/Third_Party/FreeRTOS/Source/event_groups.c **** 			}
 355:Middlewares/Third_Party/FreeRTOS/Source/event_groups.c **** 			else
 356:Middlewares/Third_Party/FreeRTOS/Source/event_groups.c **** 			{
 357:Middlewares/Third_Party/FreeRTOS/Source/event_groups.c **** 				mtCOVERAGE_TEST_MARKER();
 358:Middlewares/Third_Party/FreeRTOS/Source/event_groups.c **** 			}
 359:Middlewares/Third_Party/FreeRTOS/Source/event_groups.c **** 
 360:Middlewares/Third_Party/FreeRTOS/Source/event_groups.c **** 			if( xWaitForAllBits != pdFALSE )
 361:Middlewares/Third_Party/FreeRTOS/Source/event_groups.c **** 			{
 362:Middlewares/Third_Party/FreeRTOS/Source/event_groups.c **** 				uxControlBits |= eventWAIT_FOR_ALL_BITS;
 363:Middlewares/Third_Party/FreeRTOS/Source/event_groups.c **** 			}
 364:Middlewares/Third_Party/FreeRTOS/Source/event_groups.c **** 			else
 365:Middlewares/Third_Party/FreeRTOS/Source/event_groups.c **** 			{
ARM GAS  C:\Users\Johannes\AppData\Local\Temp\cci40EjN.s 			page 15


 366:Middlewares/Third_Party/FreeRTOS/Source/event_groups.c **** 				mtCOVERAGE_TEST_MARKER();
 367:Middlewares/Third_Party/FreeRTOS/Source/event_groups.c **** 			}
 368:Middlewares/Third_Party/FreeRTOS/Source/event_groups.c **** 
 369:Middlewares/Third_Party/FreeRTOS/Source/event_groups.c **** 			/* Store the bits that the calling task is waiting for in the
 370:Middlewares/Third_Party/FreeRTOS/Source/event_groups.c **** 			task's event list item so the kernel knows when a match is
 371:Middlewares/Third_Party/FreeRTOS/Source/event_groups.c **** 			found.  Then enter the blocked state. */
 372:Middlewares/Third_Party/FreeRTOS/Source/event_groups.c **** 			vTaskPlaceOnUnorderedEventList( &( pxEventBits->xTasksWaitingForBits ), ( uxBitsToWaitFor | uxCo
 373:Middlewares/Third_Party/FreeRTOS/Source/event_groups.c **** 
 374:Middlewares/Third_Party/FreeRTOS/Source/event_groups.c **** 			/* This is obsolete as it will get set after the task unblocks, but
 375:Middlewares/Third_Party/FreeRTOS/Source/event_groups.c **** 			some compilers mistakenly generate a warning about the variable
 376:Middlewares/Third_Party/FreeRTOS/Source/event_groups.c **** 			being returned without being set if it is not done. */
 377:Middlewares/Third_Party/FreeRTOS/Source/event_groups.c **** 			uxReturn = 0;
 378:Middlewares/Third_Party/FreeRTOS/Source/event_groups.c **** 
 379:Middlewares/Third_Party/FreeRTOS/Source/event_groups.c **** 			traceEVENT_GROUP_WAIT_BITS_BLOCK( xEventGroup, uxBitsToWaitFor );
 380:Middlewares/Third_Party/FreeRTOS/Source/event_groups.c **** 		}
 381:Middlewares/Third_Party/FreeRTOS/Source/event_groups.c **** 	}
 382:Middlewares/Third_Party/FreeRTOS/Source/event_groups.c **** 	xAlreadyYielded = xTaskResumeAll();
 383:Middlewares/Third_Party/FreeRTOS/Source/event_groups.c **** 
 384:Middlewares/Third_Party/FreeRTOS/Source/event_groups.c **** 	if( xTicksToWait != ( TickType_t ) 0 )
 385:Middlewares/Third_Party/FreeRTOS/Source/event_groups.c **** 	{
 386:Middlewares/Third_Party/FreeRTOS/Source/event_groups.c **** 		if( xAlreadyYielded == pdFALSE )
 387:Middlewares/Third_Party/FreeRTOS/Source/event_groups.c **** 		{
 388:Middlewares/Third_Party/FreeRTOS/Source/event_groups.c **** 			portYIELD_WITHIN_API();
 389:Middlewares/Third_Party/FreeRTOS/Source/event_groups.c **** 		}
 390:Middlewares/Third_Party/FreeRTOS/Source/event_groups.c **** 		else
 391:Middlewares/Third_Party/FreeRTOS/Source/event_groups.c **** 		{
 392:Middlewares/Third_Party/FreeRTOS/Source/event_groups.c **** 			mtCOVERAGE_TEST_MARKER();
 393:Middlewares/Third_Party/FreeRTOS/Source/event_groups.c **** 		}
 394:Middlewares/Third_Party/FreeRTOS/Source/event_groups.c **** 
 395:Middlewares/Third_Party/FreeRTOS/Source/event_groups.c **** 		/* The task blocked to wait for its required bits to be set - at this
 396:Middlewares/Third_Party/FreeRTOS/Source/event_groups.c **** 		point either the required bits were set or the block time expired.  If
 397:Middlewares/Third_Party/FreeRTOS/Source/event_groups.c **** 		the required bits were set they will have been stored in the task's
 398:Middlewares/Third_Party/FreeRTOS/Source/event_groups.c **** 		event list item, and they should now be retrieved then cleared. */
 399:Middlewares/Third_Party/FreeRTOS/Source/event_groups.c **** 		uxReturn = uxTaskResetEventItemValue();
 400:Middlewares/Third_Party/FreeRTOS/Source/event_groups.c **** 
 401:Middlewares/Third_Party/FreeRTOS/Source/event_groups.c **** 		if( ( uxReturn & eventUNBLOCKED_DUE_TO_BIT_SET ) == ( EventBits_t ) 0 )
 402:Middlewares/Third_Party/FreeRTOS/Source/event_groups.c **** 		{
 403:Middlewares/Third_Party/FreeRTOS/Source/event_groups.c **** 			taskENTER_CRITICAL();
 404:Middlewares/Third_Party/FreeRTOS/Source/event_groups.c **** 			{
 405:Middlewares/Third_Party/FreeRTOS/Source/event_groups.c **** 				/* The task timed out, just return the current event bit value. */
 406:Middlewares/Third_Party/FreeRTOS/Source/event_groups.c **** 				uxReturn = pxEventBits->uxEventBits;
 407:Middlewares/Third_Party/FreeRTOS/Source/event_groups.c **** 
 408:Middlewares/Third_Party/FreeRTOS/Source/event_groups.c **** 				/* It is possible that the event bits were updated between this
 409:Middlewares/Third_Party/FreeRTOS/Source/event_groups.c **** 				task leaving the Blocked state and running again. */
 410:Middlewares/Third_Party/FreeRTOS/Source/event_groups.c **** 				if( prvTestWaitCondition( uxReturn, uxBitsToWaitFor, xWaitForAllBits ) != pdFALSE )
 411:Middlewares/Third_Party/FreeRTOS/Source/event_groups.c **** 				{
 412:Middlewares/Third_Party/FreeRTOS/Source/event_groups.c **** 					if( xClearOnExit != pdFALSE )
 413:Middlewares/Third_Party/FreeRTOS/Source/event_groups.c **** 					{
 414:Middlewares/Third_Party/FreeRTOS/Source/event_groups.c **** 						pxEventBits->uxEventBits &= ~uxBitsToWaitFor;
 415:Middlewares/Third_Party/FreeRTOS/Source/event_groups.c **** 					}
 416:Middlewares/Third_Party/FreeRTOS/Source/event_groups.c **** 					else
 417:Middlewares/Third_Party/FreeRTOS/Source/event_groups.c **** 					{
 418:Middlewares/Third_Party/FreeRTOS/Source/event_groups.c **** 						mtCOVERAGE_TEST_MARKER();
 419:Middlewares/Third_Party/FreeRTOS/Source/event_groups.c **** 					}
 420:Middlewares/Third_Party/FreeRTOS/Source/event_groups.c **** 				}
 421:Middlewares/Third_Party/FreeRTOS/Source/event_groups.c **** 				else
 422:Middlewares/Third_Party/FreeRTOS/Source/event_groups.c **** 				{
ARM GAS  C:\Users\Johannes\AppData\Local\Temp\cci40EjN.s 			page 16


 423:Middlewares/Third_Party/FreeRTOS/Source/event_groups.c **** 					mtCOVERAGE_TEST_MARKER();
 424:Middlewares/Third_Party/FreeRTOS/Source/event_groups.c **** 				}
 425:Middlewares/Third_Party/FreeRTOS/Source/event_groups.c **** 				xTimeoutOccurred = pdTRUE;
 426:Middlewares/Third_Party/FreeRTOS/Source/event_groups.c **** 			}
 427:Middlewares/Third_Party/FreeRTOS/Source/event_groups.c **** 			taskEXIT_CRITICAL();
 428:Middlewares/Third_Party/FreeRTOS/Source/event_groups.c **** 		}
 429:Middlewares/Third_Party/FreeRTOS/Source/event_groups.c **** 		else
 430:Middlewares/Third_Party/FreeRTOS/Source/event_groups.c **** 		{
 431:Middlewares/Third_Party/FreeRTOS/Source/event_groups.c **** 			/* The task unblocked because the bits were set. */
 432:Middlewares/Third_Party/FreeRTOS/Source/event_groups.c **** 		}
 433:Middlewares/Third_Party/FreeRTOS/Source/event_groups.c **** 
 434:Middlewares/Third_Party/FreeRTOS/Source/event_groups.c **** 		/* The task blocked so control bits may have been set. */
 435:Middlewares/Third_Party/FreeRTOS/Source/event_groups.c **** 		uxReturn &= ~eventEVENT_BITS_CONTROL_BYTES;
 436:Middlewares/Third_Party/FreeRTOS/Source/event_groups.c **** 	}
 437:Middlewares/Third_Party/FreeRTOS/Source/event_groups.c **** 	traceEVENT_GROUP_WAIT_BITS_END( xEventGroup, uxBitsToWaitFor, xTimeoutOccurred );
 438:Middlewares/Third_Party/FreeRTOS/Source/event_groups.c **** 
 439:Middlewares/Third_Party/FreeRTOS/Source/event_groups.c **** 	/* Prevent compiler warnings when trace macros are not used. */
 440:Middlewares/Third_Party/FreeRTOS/Source/event_groups.c **** 	( void ) xTimeoutOccurred;
 441:Middlewares/Third_Party/FreeRTOS/Source/event_groups.c **** 
 442:Middlewares/Third_Party/FreeRTOS/Source/event_groups.c **** 	return uxReturn;
 443:Middlewares/Third_Party/FreeRTOS/Source/event_groups.c **** }
 444:Middlewares/Third_Party/FreeRTOS/Source/event_groups.c **** /*-----------------------------------------------------------*/
 445:Middlewares/Third_Party/FreeRTOS/Source/event_groups.c **** 
 446:Middlewares/Third_Party/FreeRTOS/Source/event_groups.c **** EventBits_t xEventGroupClearBits( EventGroupHandle_t xEventGroup, const EventBits_t uxBitsToClear )
 447:Middlewares/Third_Party/FreeRTOS/Source/event_groups.c **** {
 448:Middlewares/Third_Party/FreeRTOS/Source/event_groups.c **** EventGroup_t *pxEventBits = ( EventGroup_t * ) xEventGroup;
 449:Middlewares/Third_Party/FreeRTOS/Source/event_groups.c **** EventBits_t uxReturn;
 450:Middlewares/Third_Party/FreeRTOS/Source/event_groups.c **** 
 451:Middlewares/Third_Party/FreeRTOS/Source/event_groups.c **** 	/* Check the user is not attempting to clear the bits used by the kernel
 452:Middlewares/Third_Party/FreeRTOS/Source/event_groups.c **** 	itself. */
 453:Middlewares/Third_Party/FreeRTOS/Source/event_groups.c **** 	configASSERT( xEventGroup );
 454:Middlewares/Third_Party/FreeRTOS/Source/event_groups.c **** 	configASSERT( ( uxBitsToClear & eventEVENT_BITS_CONTROL_BYTES ) == 0 );
 455:Middlewares/Third_Party/FreeRTOS/Source/event_groups.c **** 
 456:Middlewares/Third_Party/FreeRTOS/Source/event_groups.c **** 	taskENTER_CRITICAL();
 457:Middlewares/Third_Party/FreeRTOS/Source/event_groups.c **** 	{
 458:Middlewares/Third_Party/FreeRTOS/Source/event_groups.c **** 		traceEVENT_GROUP_CLEAR_BITS( xEventGroup, uxBitsToClear );
 459:Middlewares/Third_Party/FreeRTOS/Source/event_groups.c **** 
 460:Middlewares/Third_Party/FreeRTOS/Source/event_groups.c **** 		/* The value returned is the event group value prior to the bits being
 461:Middlewares/Third_Party/FreeRTOS/Source/event_groups.c **** 		cleared. */
 462:Middlewares/Third_Party/FreeRTOS/Source/event_groups.c **** 		uxReturn = pxEventBits->uxEventBits;
 463:Middlewares/Third_Party/FreeRTOS/Source/event_groups.c **** 
 464:Middlewares/Third_Party/FreeRTOS/Source/event_groups.c **** 		/* Clear the bits. */
 465:Middlewares/Third_Party/FreeRTOS/Source/event_groups.c **** 		pxEventBits->uxEventBits &= ~uxBitsToClear;
 466:Middlewares/Third_Party/FreeRTOS/Source/event_groups.c **** 	}
 467:Middlewares/Third_Party/FreeRTOS/Source/event_groups.c **** 	taskEXIT_CRITICAL();
 468:Middlewares/Third_Party/FreeRTOS/Source/event_groups.c **** 
 469:Middlewares/Third_Party/FreeRTOS/Source/event_groups.c **** 	return uxReturn;
 470:Middlewares/Third_Party/FreeRTOS/Source/event_groups.c **** }
 471:Middlewares/Third_Party/FreeRTOS/Source/event_groups.c **** /*-----------------------------------------------------------*/
 472:Middlewares/Third_Party/FreeRTOS/Source/event_groups.c **** 
 473:Middlewares/Third_Party/FreeRTOS/Source/event_groups.c **** #if ( ( configUSE_TRACE_FACILITY == 1 ) && ( INCLUDE_xTimerPendFunctionCall == 1 ) && ( configUSE_T
 474:Middlewares/Third_Party/FreeRTOS/Source/event_groups.c **** 
 475:Middlewares/Third_Party/FreeRTOS/Source/event_groups.c **** 	BaseType_t xEventGroupClearBitsFromISR( EventGroupHandle_t xEventGroup, const EventBits_t uxBitsTo
 476:Middlewares/Third_Party/FreeRTOS/Source/event_groups.c **** 	{
 477:Middlewares/Third_Party/FreeRTOS/Source/event_groups.c **** 		BaseType_t xReturn;
 478:Middlewares/Third_Party/FreeRTOS/Source/event_groups.c **** 
 479:Middlewares/Third_Party/FreeRTOS/Source/event_groups.c **** 		traceEVENT_GROUP_CLEAR_BITS_FROM_ISR( xEventGroup, uxBitsToClear );
ARM GAS  C:\Users\Johannes\AppData\Local\Temp\cci40EjN.s 			page 17


 480:Middlewares/Third_Party/FreeRTOS/Source/event_groups.c **** 		xReturn = xTimerPendFunctionCallFromISR( vEventGroupClearBitsCallback, ( void * ) xEventGroup, ( 
 481:Middlewares/Third_Party/FreeRTOS/Source/event_groups.c **** 
 482:Middlewares/Third_Party/FreeRTOS/Source/event_groups.c **** 		return xReturn;
 483:Middlewares/Third_Party/FreeRTOS/Source/event_groups.c **** 	}
 484:Middlewares/Third_Party/FreeRTOS/Source/event_groups.c **** 
 485:Middlewares/Third_Party/FreeRTOS/Source/event_groups.c **** #endif
 486:Middlewares/Third_Party/FreeRTOS/Source/event_groups.c **** /*-----------------------------------------------------------*/
 487:Middlewares/Third_Party/FreeRTOS/Source/event_groups.c **** 
 488:Middlewares/Third_Party/FreeRTOS/Source/event_groups.c **** EventBits_t xEventGroupGetBitsFromISR( EventGroupHandle_t xEventGroup )
 489:Middlewares/Third_Party/FreeRTOS/Source/event_groups.c **** {
 490:Middlewares/Third_Party/FreeRTOS/Source/event_groups.c **** UBaseType_t uxSavedInterruptStatus;
 491:Middlewares/Third_Party/FreeRTOS/Source/event_groups.c **** EventGroup_t *pxEventBits = ( EventGroup_t * ) xEventGroup;
 492:Middlewares/Third_Party/FreeRTOS/Source/event_groups.c **** EventBits_t uxReturn;
 493:Middlewares/Third_Party/FreeRTOS/Source/event_groups.c **** 
 494:Middlewares/Third_Party/FreeRTOS/Source/event_groups.c **** 	uxSavedInterruptStatus = portSET_INTERRUPT_MASK_FROM_ISR();
 495:Middlewares/Third_Party/FreeRTOS/Source/event_groups.c **** 	{
 496:Middlewares/Third_Party/FreeRTOS/Source/event_groups.c **** 		uxReturn = pxEventBits->uxEventBits;
 497:Middlewares/Third_Party/FreeRTOS/Source/event_groups.c **** 	}
 498:Middlewares/Third_Party/FreeRTOS/Source/event_groups.c **** 	portCLEAR_INTERRUPT_MASK_FROM_ISR( uxSavedInterruptStatus );
 499:Middlewares/Third_Party/FreeRTOS/Source/event_groups.c **** 
 500:Middlewares/Third_Party/FreeRTOS/Source/event_groups.c **** 	return uxReturn;
 501:Middlewares/Third_Party/FreeRTOS/Source/event_groups.c **** }
 502:Middlewares/Third_Party/FreeRTOS/Source/event_groups.c **** /*-----------------------------------------------------------*/
 503:Middlewares/Third_Party/FreeRTOS/Source/event_groups.c **** 
 504:Middlewares/Third_Party/FreeRTOS/Source/event_groups.c **** EventBits_t xEventGroupSetBits( EventGroupHandle_t xEventGroup, const EventBits_t uxBitsToSet )
 505:Middlewares/Third_Party/FreeRTOS/Source/event_groups.c **** {
 506:Middlewares/Third_Party/FreeRTOS/Source/event_groups.c **** ListItem_t *pxListItem, *pxNext;
 507:Middlewares/Third_Party/FreeRTOS/Source/event_groups.c **** ListItem_t const *pxListEnd;
 508:Middlewares/Third_Party/FreeRTOS/Source/event_groups.c **** List_t *pxList;
 509:Middlewares/Third_Party/FreeRTOS/Source/event_groups.c **** EventBits_t uxBitsToClear = 0, uxBitsWaitedFor, uxControlBits;
 510:Middlewares/Third_Party/FreeRTOS/Source/event_groups.c **** EventGroup_t *pxEventBits = ( EventGroup_t * ) xEventGroup;
 511:Middlewares/Third_Party/FreeRTOS/Source/event_groups.c **** BaseType_t xMatchFound = pdFALSE;
 512:Middlewares/Third_Party/FreeRTOS/Source/event_groups.c **** 
 513:Middlewares/Third_Party/FreeRTOS/Source/event_groups.c **** 	/* Check the user is not attempting to set the bits used by the kernel
 514:Middlewares/Third_Party/FreeRTOS/Source/event_groups.c **** 	itself. */
 515:Middlewares/Third_Party/FreeRTOS/Source/event_groups.c **** 	configASSERT( xEventGroup );
 516:Middlewares/Third_Party/FreeRTOS/Source/event_groups.c **** 	configASSERT( ( uxBitsToSet & eventEVENT_BITS_CONTROL_BYTES ) == 0 );
 517:Middlewares/Third_Party/FreeRTOS/Source/event_groups.c **** 
 518:Middlewares/Third_Party/FreeRTOS/Source/event_groups.c **** 	pxList = &( pxEventBits->xTasksWaitingForBits );
 519:Middlewares/Third_Party/FreeRTOS/Source/event_groups.c **** 	pxListEnd = listGET_END_MARKER( pxList ); /*lint !e826 !e740 The mini list structure is used as th
 520:Middlewares/Third_Party/FreeRTOS/Source/event_groups.c **** 	vTaskSuspendAll();
 521:Middlewares/Third_Party/FreeRTOS/Source/event_groups.c **** 	{
 522:Middlewares/Third_Party/FreeRTOS/Source/event_groups.c **** 		traceEVENT_GROUP_SET_BITS( xEventGroup, uxBitsToSet );
 523:Middlewares/Third_Party/FreeRTOS/Source/event_groups.c **** 
 524:Middlewares/Third_Party/FreeRTOS/Source/event_groups.c **** 		pxListItem = listGET_HEAD_ENTRY( pxList );
 525:Middlewares/Third_Party/FreeRTOS/Source/event_groups.c **** 
 526:Middlewares/Third_Party/FreeRTOS/Source/event_groups.c **** 		/* Set the bits. */
 527:Middlewares/Third_Party/FreeRTOS/Source/event_groups.c **** 		pxEventBits->uxEventBits |= uxBitsToSet;
 528:Middlewares/Third_Party/FreeRTOS/Source/event_groups.c **** 
 529:Middlewares/Third_Party/FreeRTOS/Source/event_groups.c **** 		/* See if the new bit value should unblock any tasks. */
 530:Middlewares/Third_Party/FreeRTOS/Source/event_groups.c **** 		while( pxListItem != pxListEnd )
 531:Middlewares/Third_Party/FreeRTOS/Source/event_groups.c **** 		{
 532:Middlewares/Third_Party/FreeRTOS/Source/event_groups.c **** 			pxNext = listGET_NEXT( pxListItem );
 533:Middlewares/Third_Party/FreeRTOS/Source/event_groups.c **** 			uxBitsWaitedFor = listGET_LIST_ITEM_VALUE( pxListItem );
 534:Middlewares/Third_Party/FreeRTOS/Source/event_groups.c **** 			xMatchFound = pdFALSE;
 535:Middlewares/Third_Party/FreeRTOS/Source/event_groups.c **** 
 536:Middlewares/Third_Party/FreeRTOS/Source/event_groups.c **** 			/* Split the bits waited for from the control bits. */
ARM GAS  C:\Users\Johannes\AppData\Local\Temp\cci40EjN.s 			page 18


 537:Middlewares/Third_Party/FreeRTOS/Source/event_groups.c **** 			uxControlBits = uxBitsWaitedFor & eventEVENT_BITS_CONTROL_BYTES;
 538:Middlewares/Third_Party/FreeRTOS/Source/event_groups.c **** 			uxBitsWaitedFor &= ~eventEVENT_BITS_CONTROL_BYTES;
 539:Middlewares/Third_Party/FreeRTOS/Source/event_groups.c **** 
 540:Middlewares/Third_Party/FreeRTOS/Source/event_groups.c **** 			if( ( uxControlBits & eventWAIT_FOR_ALL_BITS ) == ( EventBits_t ) 0 )
 541:Middlewares/Third_Party/FreeRTOS/Source/event_groups.c **** 			{
 542:Middlewares/Third_Party/FreeRTOS/Source/event_groups.c **** 				/* Just looking for single bit being set. */
 543:Middlewares/Third_Party/FreeRTOS/Source/event_groups.c **** 				if( ( uxBitsWaitedFor & pxEventBits->uxEventBits ) != ( EventBits_t ) 0 )
 544:Middlewares/Third_Party/FreeRTOS/Source/event_groups.c **** 				{
 545:Middlewares/Third_Party/FreeRTOS/Source/event_groups.c **** 					xMatchFound = pdTRUE;
 546:Middlewares/Third_Party/FreeRTOS/Source/event_groups.c **** 				}
 547:Middlewares/Third_Party/FreeRTOS/Source/event_groups.c **** 				else
 548:Middlewares/Third_Party/FreeRTOS/Source/event_groups.c **** 				{
 549:Middlewares/Third_Party/FreeRTOS/Source/event_groups.c **** 					mtCOVERAGE_TEST_MARKER();
 550:Middlewares/Third_Party/FreeRTOS/Source/event_groups.c **** 				}
 551:Middlewares/Third_Party/FreeRTOS/Source/event_groups.c **** 			}
 552:Middlewares/Third_Party/FreeRTOS/Source/event_groups.c **** 			else if( ( uxBitsWaitedFor & pxEventBits->uxEventBits ) == uxBitsWaitedFor )
 553:Middlewares/Third_Party/FreeRTOS/Source/event_groups.c **** 			{
 554:Middlewares/Third_Party/FreeRTOS/Source/event_groups.c **** 				/* All bits are set. */
 555:Middlewares/Third_Party/FreeRTOS/Source/event_groups.c **** 				xMatchFound = pdTRUE;
 556:Middlewares/Third_Party/FreeRTOS/Source/event_groups.c **** 			}
 557:Middlewares/Third_Party/FreeRTOS/Source/event_groups.c **** 			else
 558:Middlewares/Third_Party/FreeRTOS/Source/event_groups.c **** 			{
 559:Middlewares/Third_Party/FreeRTOS/Source/event_groups.c **** 				/* Need all bits to be set, but not all the bits were set. */
 560:Middlewares/Third_Party/FreeRTOS/Source/event_groups.c **** 			}
 561:Middlewares/Third_Party/FreeRTOS/Source/event_groups.c **** 
 562:Middlewares/Third_Party/FreeRTOS/Source/event_groups.c **** 			if( xMatchFound != pdFALSE )
 563:Middlewares/Third_Party/FreeRTOS/Source/event_groups.c **** 			{
 564:Middlewares/Third_Party/FreeRTOS/Source/event_groups.c **** 				/* The bits match.  Should the bits be cleared on exit? */
 565:Middlewares/Third_Party/FreeRTOS/Source/event_groups.c **** 				if( ( uxControlBits & eventCLEAR_EVENTS_ON_EXIT_BIT ) != ( EventBits_t ) 0 )
 566:Middlewares/Third_Party/FreeRTOS/Source/event_groups.c **** 				{
 567:Middlewares/Third_Party/FreeRTOS/Source/event_groups.c **** 					uxBitsToClear |= uxBitsWaitedFor;
 568:Middlewares/Third_Party/FreeRTOS/Source/event_groups.c **** 				}
 569:Middlewares/Third_Party/FreeRTOS/Source/event_groups.c **** 				else
 570:Middlewares/Third_Party/FreeRTOS/Source/event_groups.c **** 				{
 571:Middlewares/Third_Party/FreeRTOS/Source/event_groups.c **** 					mtCOVERAGE_TEST_MARKER();
 572:Middlewares/Third_Party/FreeRTOS/Source/event_groups.c **** 				}
 573:Middlewares/Third_Party/FreeRTOS/Source/event_groups.c **** 
 574:Middlewares/Third_Party/FreeRTOS/Source/event_groups.c **** 				/* Store the actual event flag value in the task's event list
 575:Middlewares/Third_Party/FreeRTOS/Source/event_groups.c **** 				item before removing the task from the event list.  The
 576:Middlewares/Third_Party/FreeRTOS/Source/event_groups.c **** 				eventUNBLOCKED_DUE_TO_BIT_SET bit is set so the task knows
 577:Middlewares/Third_Party/FreeRTOS/Source/event_groups.c **** 				that is was unblocked due to its required bits matching, rather
 578:Middlewares/Third_Party/FreeRTOS/Source/event_groups.c **** 				than because it timed out. */
 579:Middlewares/Third_Party/FreeRTOS/Source/event_groups.c **** 				vTaskRemoveFromUnorderedEventList( pxListItem, pxEventBits->uxEventBits | eventUNBLOCKED_DUE_TO
 580:Middlewares/Third_Party/FreeRTOS/Source/event_groups.c **** 			}
 581:Middlewares/Third_Party/FreeRTOS/Source/event_groups.c **** 
 582:Middlewares/Third_Party/FreeRTOS/Source/event_groups.c **** 			/* Move onto the next list item.  Note pxListItem->pxNext is not
 583:Middlewares/Third_Party/FreeRTOS/Source/event_groups.c **** 			used here as the list item may have been removed from the event list
 584:Middlewares/Third_Party/FreeRTOS/Source/event_groups.c **** 			and inserted into the ready/pending reading list. */
 585:Middlewares/Third_Party/FreeRTOS/Source/event_groups.c **** 			pxListItem = pxNext;
 586:Middlewares/Third_Party/FreeRTOS/Source/event_groups.c **** 		}
 587:Middlewares/Third_Party/FreeRTOS/Source/event_groups.c **** 
 588:Middlewares/Third_Party/FreeRTOS/Source/event_groups.c **** 		/* Clear any bits that matched when the eventCLEAR_EVENTS_ON_EXIT_BIT
 589:Middlewares/Third_Party/FreeRTOS/Source/event_groups.c **** 		bit was set in the control word. */
 590:Middlewares/Third_Party/FreeRTOS/Source/event_groups.c **** 		pxEventBits->uxEventBits &= ~uxBitsToClear;
 591:Middlewares/Third_Party/FreeRTOS/Source/event_groups.c **** 	}
 592:Middlewares/Third_Party/FreeRTOS/Source/event_groups.c **** 	( void ) xTaskResumeAll();
 593:Middlewares/Third_Party/FreeRTOS/Source/event_groups.c **** 
ARM GAS  C:\Users\Johannes\AppData\Local\Temp\cci40EjN.s 			page 19


 594:Middlewares/Third_Party/FreeRTOS/Source/event_groups.c **** 	return pxEventBits->uxEventBits;
 595:Middlewares/Third_Party/FreeRTOS/Source/event_groups.c **** }
 596:Middlewares/Third_Party/FreeRTOS/Source/event_groups.c **** /*-----------------------------------------------------------*/
 597:Middlewares/Third_Party/FreeRTOS/Source/event_groups.c **** 
 598:Middlewares/Third_Party/FreeRTOS/Source/event_groups.c **** void vEventGroupDelete( EventGroupHandle_t xEventGroup )
 599:Middlewares/Third_Party/FreeRTOS/Source/event_groups.c **** {
 600:Middlewares/Third_Party/FreeRTOS/Source/event_groups.c **** EventGroup_t *pxEventBits = ( EventGroup_t * ) xEventGroup;
 601:Middlewares/Third_Party/FreeRTOS/Source/event_groups.c **** const List_t *pxTasksWaitingForBits = &( pxEventBits->xTasksWaitingForBits );
 602:Middlewares/Third_Party/FreeRTOS/Source/event_groups.c **** 
 603:Middlewares/Third_Party/FreeRTOS/Source/event_groups.c **** 	vTaskSuspendAll();
 604:Middlewares/Third_Party/FreeRTOS/Source/event_groups.c **** 	{
 605:Middlewares/Third_Party/FreeRTOS/Source/event_groups.c **** 		traceEVENT_GROUP_DELETE( xEventGroup );
 606:Middlewares/Third_Party/FreeRTOS/Source/event_groups.c **** 
 607:Middlewares/Third_Party/FreeRTOS/Source/event_groups.c **** 		while( listCURRENT_LIST_LENGTH( pxTasksWaitingForBits ) > ( UBaseType_t ) 0 )
 608:Middlewares/Third_Party/FreeRTOS/Source/event_groups.c **** 		{
 609:Middlewares/Third_Party/FreeRTOS/Source/event_groups.c **** 			/* Unblock the task, returning 0 as the event list is being deleted
 610:Middlewares/Third_Party/FreeRTOS/Source/event_groups.c **** 			and cannot therefore have any bits set. */
 611:Middlewares/Third_Party/FreeRTOS/Source/event_groups.c **** 			configASSERT( pxTasksWaitingForBits->xListEnd.pxNext != ( const ListItem_t * ) &( pxTasksWaiting
 612:Middlewares/Third_Party/FreeRTOS/Source/event_groups.c **** 			vTaskRemoveFromUnorderedEventList( pxTasksWaitingForBits->xListEnd.pxNext, eventUNBLOCKED_DUE_TO
 613:Middlewares/Third_Party/FreeRTOS/Source/event_groups.c **** 		}
 614:Middlewares/Third_Party/FreeRTOS/Source/event_groups.c **** 
 615:Middlewares/Third_Party/FreeRTOS/Source/event_groups.c **** 		#if( ( configSUPPORT_DYNAMIC_ALLOCATION == 1 ) && ( configSUPPORT_STATIC_ALLOCATION == 0 ) )
 616:Middlewares/Third_Party/FreeRTOS/Source/event_groups.c **** 		{
 617:Middlewares/Third_Party/FreeRTOS/Source/event_groups.c **** 			/* The event group can only have been allocated dynamically - free
 618:Middlewares/Third_Party/FreeRTOS/Source/event_groups.c **** 			it again. */
 619:Middlewares/Third_Party/FreeRTOS/Source/event_groups.c **** 			vPortFree( pxEventBits );
 620:Middlewares/Third_Party/FreeRTOS/Source/event_groups.c **** 		}
 621:Middlewares/Third_Party/FreeRTOS/Source/event_groups.c **** 		#elif( ( configSUPPORT_DYNAMIC_ALLOCATION == 1 ) && ( configSUPPORT_STATIC_ALLOCATION == 1 ) )
 622:Middlewares/Third_Party/FreeRTOS/Source/event_groups.c **** 		{
 623:Middlewares/Third_Party/FreeRTOS/Source/event_groups.c **** 			/* The event group could have been allocated statically or
 624:Middlewares/Third_Party/FreeRTOS/Source/event_groups.c **** 			dynamically, so check before attempting to free the memory. */
 625:Middlewares/Third_Party/FreeRTOS/Source/event_groups.c **** 			if( pxEventBits->ucStaticallyAllocated == ( uint8_t ) pdFALSE )
 626:Middlewares/Third_Party/FreeRTOS/Source/event_groups.c **** 			{
 627:Middlewares/Third_Party/FreeRTOS/Source/event_groups.c **** 				vPortFree( pxEventBits );
 628:Middlewares/Third_Party/FreeRTOS/Source/event_groups.c **** 			}
 629:Middlewares/Third_Party/FreeRTOS/Source/event_groups.c **** 			else
 630:Middlewares/Third_Party/FreeRTOS/Source/event_groups.c **** 			{
 631:Middlewares/Third_Party/FreeRTOS/Source/event_groups.c **** 				mtCOVERAGE_TEST_MARKER();
 632:Middlewares/Third_Party/FreeRTOS/Source/event_groups.c **** 			}
 633:Middlewares/Third_Party/FreeRTOS/Source/event_groups.c **** 		}
 634:Middlewares/Third_Party/FreeRTOS/Source/event_groups.c **** 		#endif /* configSUPPORT_DYNAMIC_ALLOCATION */
 635:Middlewares/Third_Party/FreeRTOS/Source/event_groups.c **** 	}
 636:Middlewares/Third_Party/FreeRTOS/Source/event_groups.c **** 	( void ) xTaskResumeAll();
 637:Middlewares/Third_Party/FreeRTOS/Source/event_groups.c **** }
 638:Middlewares/Third_Party/FreeRTOS/Source/event_groups.c **** /*-----------------------------------------------------------*/
 639:Middlewares/Third_Party/FreeRTOS/Source/event_groups.c **** 
 640:Middlewares/Third_Party/FreeRTOS/Source/event_groups.c **** /* For internal use only - execute a 'set bits' command that was pended from
 641:Middlewares/Third_Party/FreeRTOS/Source/event_groups.c **** an interrupt. */
 642:Middlewares/Third_Party/FreeRTOS/Source/event_groups.c **** void vEventGroupSetBitsCallback( void *pvEventGroup, const uint32_t ulBitsToSet )
 643:Middlewares/Third_Party/FreeRTOS/Source/event_groups.c **** {
 644:Middlewares/Third_Party/FreeRTOS/Source/event_groups.c **** 	( void ) xEventGroupSetBits( pvEventGroup, ( EventBits_t ) ulBitsToSet );
 645:Middlewares/Third_Party/FreeRTOS/Source/event_groups.c **** }
 646:Middlewares/Third_Party/FreeRTOS/Source/event_groups.c **** /*-----------------------------------------------------------*/
 647:Middlewares/Third_Party/FreeRTOS/Source/event_groups.c **** 
 648:Middlewares/Third_Party/FreeRTOS/Source/event_groups.c **** /* For internal use only - execute a 'clear bits' command that was pended from
 649:Middlewares/Third_Party/FreeRTOS/Source/event_groups.c **** an interrupt. */
 650:Middlewares/Third_Party/FreeRTOS/Source/event_groups.c **** void vEventGroupClearBitsCallback( void *pvEventGroup, const uint32_t ulBitsToClear )
ARM GAS  C:\Users\Johannes\AppData\Local\Temp\cci40EjN.s 			page 20


 651:Middlewares/Third_Party/FreeRTOS/Source/event_groups.c **** {
 652:Middlewares/Third_Party/FreeRTOS/Source/event_groups.c **** 	( void ) xEventGroupClearBits( pvEventGroup, ( EventBits_t ) ulBitsToClear );
 653:Middlewares/Third_Party/FreeRTOS/Source/event_groups.c **** }
 654:Middlewares/Third_Party/FreeRTOS/Source/event_groups.c **** /*-----------------------------------------------------------*/
 655:Middlewares/Third_Party/FreeRTOS/Source/event_groups.c **** 
 656:Middlewares/Third_Party/FreeRTOS/Source/event_groups.c **** static BaseType_t prvTestWaitCondition( const EventBits_t uxCurrentEventBits, const EventBits_t uxB
 226              		.loc 1 656 19 discriminator 8 view .LVU64
 227              	.LBB60:
 657:Middlewares/Third_Party/FreeRTOS/Source/event_groups.c **** {
 658:Middlewares/Third_Party/FreeRTOS/Source/event_groups.c **** BaseType_t xWaitConditionMet = pdFALSE;
 228              		.loc 1 658 1 discriminator 8 view .LVU65
 659:Middlewares/Third_Party/FreeRTOS/Source/event_groups.c **** 
 660:Middlewares/Third_Party/FreeRTOS/Source/event_groups.c **** 	if( xWaitForAllBits == pdFALSE )
 229              		.loc 1 660 2 discriminator 8 view .LVU66
 230              		.loc 1 660 4 is_stmt 0 discriminator 8 view .LVU67
 231 0062 B9F1000F 		cmp	r9, #0
 232 0066 32D1     		bne	.L17
 661:Middlewares/Third_Party/FreeRTOS/Source/event_groups.c **** 	{
 662:Middlewares/Third_Party/FreeRTOS/Source/event_groups.c **** 		/* Task only has to wait for one bit within uxBitsToWaitFor to be
 663:Middlewares/Third_Party/FreeRTOS/Source/event_groups.c **** 		set.  Is one already set? */
 664:Middlewares/Third_Party/FreeRTOS/Source/event_groups.c **** 		if( ( uxCurrentEventBits & uxBitsToWaitFor ) != ( EventBits_t ) 0 )
 233              		.loc 1 664 3 is_stmt 1 view .LVU68
 234              		.loc 1 664 5 is_stmt 0 view .LVU69
 235 0068 2C42     		tst	r4, r5
 236 006a 33D1     		bne	.L18
 237              	.L19:
 238              		.loc 1 664 5 view .LVU70
 239              	.LBE60:
 240              	.LBE59:
 338:Middlewares/Third_Party/FreeRTOS/Source/event_groups.c **** 		{
 241              		.loc 1 338 8 is_stmt 1 view .LVU71
 338:Middlewares/Third_Party/FreeRTOS/Source/event_groups.c **** 		{
 242              		.loc 1 338 10 is_stmt 0 view .LVU72
 243 006c BAF1000F 		cmp	r10, #0
 244 0070 39D0     		beq	.L22
 351:Middlewares/Third_Party/FreeRTOS/Source/event_groups.c **** 			{
 245              		.loc 1 351 4 is_stmt 1 view .LVU73
 353:Middlewares/Third_Party/FreeRTOS/Source/event_groups.c **** 			}
 246              		.loc 1 353 19 is_stmt 0 view .LVU74
 247 0072 B8F1000F 		cmp	r8, #0
 248 0076 18BF     		it	ne
 249 0078 4FF08076 		movne	r6, #16777216
 250              	.LVL14:
 357:Middlewares/Third_Party/FreeRTOS/Source/event_groups.c **** 			}
 251              		.loc 1 357 29 is_stmt 1 view .LVU75
 360:Middlewares/Third_Party/FreeRTOS/Source/event_groups.c **** 			{
 252              		.loc 1 360 4 view .LVU76
 360:Middlewares/Third_Party/FreeRTOS/Source/event_groups.c **** 			{
 253              		.loc 1 360 6 is_stmt 0 view .LVU77
 254 007c B9F1000F 		cmp	r9, #0
 255 0080 01D0     		beq	.L24
 362:Middlewares/Third_Party/FreeRTOS/Source/event_groups.c **** 			}
 256              		.loc 1 362 5 is_stmt 1 view .LVU78
 362:Middlewares/Third_Party/FreeRTOS/Source/event_groups.c **** 			}
 257              		.loc 1 362 19 is_stmt 0 view .LVU79
 258 0082 46F08066 		orr	r6, r6, #67108864
 259              	.LVL15:
ARM GAS  C:\Users\Johannes\AppData\Local\Temp\cci40EjN.s 			page 21


 260              	.L24:
 366:Middlewares/Third_Party/FreeRTOS/Source/event_groups.c **** 			}
 261              		.loc 1 366 29 is_stmt 1 view .LVU80
 372:Middlewares/Third_Party/FreeRTOS/Source/event_groups.c **** 
 262              		.loc 1 372 4 view .LVU81
 263 0086 5246     		mov	r2, r10
 264 0088 46EA0401 		orr	r1, r6, r4
 265 008c 381D     		adds	r0, r7, #4
 266 008e FFF7FEFF 		bl	vTaskPlaceOnUnorderedEventList
 267              	.LVL16:
 377:Middlewares/Third_Party/FreeRTOS/Source/event_groups.c **** 
 268              		.loc 1 377 4 view .LVU82
 379:Middlewares/Third_Party/FreeRTOS/Source/event_groups.c **** 		}
 269              		.loc 1 379 68 view .LVU83
 270              	.LBE58:
 382:Middlewares/Third_Party/FreeRTOS/Source/event_groups.c **** 
 271              		.loc 1 382 2 view .LVU84
 382:Middlewares/Third_Party/FreeRTOS/Source/event_groups.c **** 
 272              		.loc 1 382 20 is_stmt 0 view .LVU85
 273 0092 FFF7FEFF 		bl	xTaskResumeAll
 274              	.LVL17:
 384:Middlewares/Third_Party/FreeRTOS/Source/event_groups.c **** 	{
 275              		.loc 1 384 2 is_stmt 1 view .LVU86
 386:Middlewares/Third_Party/FreeRTOS/Source/event_groups.c **** 		{
 276              		.loc 1 386 3 view .LVU87
 386:Middlewares/Third_Party/FreeRTOS/Source/event_groups.c **** 		{
 277              		.loc 1 386 5 is_stmt 0 view .LVU88
 278 0096 38B9     		cbnz	r0, .L25
 388:Middlewares/Third_Party/FreeRTOS/Source/event_groups.c **** 		}
 279              		.loc 1 388 4 is_stmt 1 view .LVU89
 280 0098 4FF08052 		mov	r2, #268435456
 281 009c 1E4B     		ldr	r3, .L46
 282 009e 1A60     		str	r2, [r3]
 388:Middlewares/Third_Party/FreeRTOS/Source/event_groups.c **** 		}
 283              		.loc 1 388 4 view .LVU90
 284              		.syntax unified
 285              	@ 388 "Middlewares/Third_Party/FreeRTOS/Source/event_groups.c" 1
 286 00a0 BFF34F8F 		dsb
 287              	@ 0 "" 2
 388:Middlewares/Third_Party/FreeRTOS/Source/event_groups.c **** 		}
 288              		.loc 1 388 4 view .LVU91
 289              	@ 388 "Middlewares/Third_Party/FreeRTOS/Source/event_groups.c" 1
 290 00a4 BFF36F8F 		isb
 291              	@ 0 "" 2
 388:Middlewares/Third_Party/FreeRTOS/Source/event_groups.c **** 		}
 292              		.loc 1 388 26 view .LVU92
 293              		.thumb
 294              		.syntax unified
 295              	.L25:
 392:Middlewares/Third_Party/FreeRTOS/Source/event_groups.c **** 		}
 296              		.loc 1 392 28 view .LVU93
 399:Middlewares/Third_Party/FreeRTOS/Source/event_groups.c **** 
 297              		.loc 1 399 3 view .LVU94
 399:Middlewares/Third_Party/FreeRTOS/Source/event_groups.c **** 
 298              		.loc 1 399 14 is_stmt 0 view .LVU95
 299 00a8 FFF7FEFF 		bl	uxTaskResetEventItemValue
 300              	.LVL18:
ARM GAS  C:\Users\Johannes\AppData\Local\Temp\cci40EjN.s 			page 22


 401:Middlewares/Third_Party/FreeRTOS/Source/event_groups.c **** 		{
 301              		.loc 1 401 5 view .LVU96
 302 00ac 8301     		lsls	r3, r0, #6
 399:Middlewares/Third_Party/FreeRTOS/Source/event_groups.c **** 
 303              		.loc 1 399 14 view .LVU97
 304 00ae 0546     		mov	r5, r0
 305              	.LVL19:
 401:Middlewares/Third_Party/FreeRTOS/Source/event_groups.c **** 		{
 306              		.loc 1 401 3 is_stmt 1 view .LVU98
 401:Middlewares/Third_Party/FreeRTOS/Source/event_groups.c **** 		{
 307              		.loc 1 401 5 is_stmt 0 view .LVU99
 308 00b0 1CD5     		bpl	.L45
 309              	.LVL20:
 310              	.L26:
 432:Middlewares/Third_Party/FreeRTOS/Source/event_groups.c **** 
 311              		.loc 1 432 3 is_stmt 1 view .LVU100
 435:Middlewares/Third_Party/FreeRTOS/Source/event_groups.c **** 	}
 312              		.loc 1 435 3 view .LVU101
 435:Middlewares/Third_Party/FreeRTOS/Source/event_groups.c **** 	}
 313              		.loc 1 435 12 is_stmt 0 view .LVU102
 314 00b2 25F07F45 		bic	r5, r5, #-16777216
 315              	.LVL21:
 437:Middlewares/Third_Party/FreeRTOS/Source/event_groups.c **** 
 316              		.loc 1 437 2 is_stmt 1 view .LVU103
 440:Middlewares/Third_Party/FreeRTOS/Source/event_groups.c **** 
 317              		.loc 1 440 2 view .LVU104
 442:Middlewares/Third_Party/FreeRTOS/Source/event_groups.c **** }
 318              		.loc 1 442 2 view .LVU105
 319              	.L8:
 443:Middlewares/Third_Party/FreeRTOS/Source/event_groups.c **** /*-----------------------------------------------------------*/
 320              		.loc 1 443 1 is_stmt 0 view .LVU106
 321 00b6 2846     		mov	r0, r5
 322 00b8 BDE8F087 		pop	{r4, r5, r6, r7, r8, r9, r10, pc}
 323              	.LVL22:
 324              	.L44:
 310:Middlewares/Third_Party/FreeRTOS/Source/event_groups.c **** 	}
 325              		.loc 1 310 3 is_stmt 1 view .LVU107
 326              	.LBB63:
 327              	.LBI63:
 191:Middlewares/Third_Party/FreeRTOS/Source/portable/GCC/ARM_CM3/portmacro.h **** {
 328              		.loc 2 191 30 view .LVU108
 329              	.LBB64:
 193:Middlewares/Third_Party/FreeRTOS/Source/portable/GCC/ARM_CM3/portmacro.h **** 
 330              		.loc 2 193 1 view .LVU109
 331              		.loc 2 195 2 view .LVU110
 332              		.syntax unified
 333              	@ 195 "Middlewares/Third_Party/FreeRTOS/Source/portable/GCC/ARM_CM3/portmacro.h" 1
 334 00bc 4FF05003 			mov r3, #80												
 335 00c0 83F31188 		msr basepri, r3											
 336 00c4 BFF36F8F 		isb														
 337 00c8 BFF34F8F 		dsb														
 338              	
 339              	@ 0 "" 2
 340              	.LVL23:
 341              		.thumb
 342              		.syntax unified
 343              	.L16:
ARM GAS  C:\Users\Johannes\AppData\Local\Temp\cci40EjN.s 			page 23


 344              		.loc 2 195 2 is_stmt 0 view .LVU111
 345              	.LBE64:
 346              	.LBE63:
 310:Middlewares/Third_Party/FreeRTOS/Source/event_groups.c **** 	}
 347              		.loc 1 310 3 is_stmt 1 discriminator 4 view .LVU112
 310:Middlewares/Third_Party/FreeRTOS/Source/event_groups.c **** 	}
 348              		.loc 1 310 3 discriminator 4 view .LVU113
 310:Middlewares/Third_Party/FreeRTOS/Source/event_groups.c **** 	}
 349              		.loc 1 310 3 discriminator 4 view .LVU114
 310:Middlewares/Third_Party/FreeRTOS/Source/event_groups.c **** 	}
 350              		.loc 1 310 3 discriminator 4 view .LVU115
 351 00cc FEE7     		b	.L16
 352              	.LVL24:
 353              	.L17:
 354              	.LBB65:
 355              	.LBB62:
 356              	.LBB61:
 665:Middlewares/Third_Party/FreeRTOS/Source/event_groups.c **** 		{
 666:Middlewares/Third_Party/FreeRTOS/Source/event_groups.c **** 			xWaitConditionMet = pdTRUE;
 667:Middlewares/Third_Party/FreeRTOS/Source/event_groups.c **** 		}
 668:Middlewares/Third_Party/FreeRTOS/Source/event_groups.c **** 		else
 669:Middlewares/Third_Party/FreeRTOS/Source/event_groups.c **** 		{
 670:Middlewares/Third_Party/FreeRTOS/Source/event_groups.c **** 			mtCOVERAGE_TEST_MARKER();
 671:Middlewares/Third_Party/FreeRTOS/Source/event_groups.c **** 		}
 672:Middlewares/Third_Party/FreeRTOS/Source/event_groups.c **** 	}
 673:Middlewares/Third_Party/FreeRTOS/Source/event_groups.c **** 	else
 674:Middlewares/Third_Party/FreeRTOS/Source/event_groups.c **** 	{
 675:Middlewares/Third_Party/FreeRTOS/Source/event_groups.c **** 		/* Task has to wait for all the bits in uxBitsToWaitFor to be set.
 676:Middlewares/Third_Party/FreeRTOS/Source/event_groups.c **** 		Are they set already? */
 677:Middlewares/Third_Party/FreeRTOS/Source/event_groups.c **** 		if( ( uxCurrentEventBits & uxBitsToWaitFor ) == uxBitsToWaitFor )
 357              		.loc 1 677 3 view .LVU116
 358              		.loc 1 677 5 is_stmt 0 view .LVU117
 359 00ce 34EA0503 		bics	r3, r4, r5
 360 00d2 CBD1     		bne	.L19
 361              	.L18:
 362              		.loc 1 677 5 view .LVU118
 363              	.LBE61:
 364              	.LBE62:
 325:Middlewares/Third_Party/FreeRTOS/Source/event_groups.c **** 			xTicksToWait = ( TickType_t ) 0;
 365              		.loc 1 325 4 is_stmt 1 view .LVU119
 366              	.LVL25:
 326:Middlewares/Third_Party/FreeRTOS/Source/event_groups.c **** 
 367              		.loc 1 326 4 view .LVU120
 329:Middlewares/Third_Party/FreeRTOS/Source/event_groups.c **** 			{
 368              		.loc 1 329 4 view .LVU121
 329:Middlewares/Third_Party/FreeRTOS/Source/event_groups.c **** 			{
 369              		.loc 1 329 6 is_stmt 0 view .LVU122
 370 00d4 B8F1000F 		cmp	r8, #0
 371 00d8 05D0     		beq	.L22
 331:Middlewares/Third_Party/FreeRTOS/Source/event_groups.c **** 			}
 372              		.loc 1 331 5 is_stmt 1 view .LVU123
 331:Middlewares/Third_Party/FreeRTOS/Source/event_groups.c **** 			}
 373              		.loc 1 331 30 is_stmt 0 view .LVU124
 374 00da 25EA0404 		bic	r4, r5, r4
 375              	.LVL26:
 331:Middlewares/Third_Party/FreeRTOS/Source/event_groups.c **** 			}
 376              		.loc 1 331 30 view .LVU125
ARM GAS  C:\Users\Johannes\AppData\Local\Temp\cci40EjN.s 			page 24


 377 00de 3C60     		str	r4, [r7]
 379:Middlewares/Third_Party/FreeRTOS/Source/event_groups.c **** 		}
 378              		.loc 1 379 68 is_stmt 1 view .LVU126
 379              	.LBE65:
 382:Middlewares/Third_Party/FreeRTOS/Source/event_groups.c **** 
 380              		.loc 1 382 2 view .LVU127
 382:Middlewares/Third_Party/FreeRTOS/Source/event_groups.c **** 
 381              		.loc 1 382 20 is_stmt 0 view .LVU128
 382 00e0 FFF7FEFF 		bl	xTaskResumeAll
 383              	.LVL27:
 384:Middlewares/Third_Party/FreeRTOS/Source/event_groups.c **** 	{
 384              		.loc 1 384 2 is_stmt 1 view .LVU129
 385 00e4 E7E7     		b	.L8
 386              	.LVL28:
 387              	.L22:
 388              	.LBB66:
 379:Middlewares/Third_Party/FreeRTOS/Source/event_groups.c **** 		}
 389              		.loc 1 379 68 view .LVU130
 390              	.LBE66:
 382:Middlewares/Third_Party/FreeRTOS/Source/event_groups.c **** 
 391              		.loc 1 382 2 view .LVU131
 382:Middlewares/Third_Party/FreeRTOS/Source/event_groups.c **** 
 392              		.loc 1 382 20 is_stmt 0 view .LVU132
 393 00e6 FFF7FEFF 		bl	xTaskResumeAll
 394              	.LVL29:
 384:Middlewares/Third_Party/FreeRTOS/Source/event_groups.c **** 	{
 395              		.loc 1 384 2 is_stmt 1 view .LVU133
 396 00ea E4E7     		b	.L8
 397              	.LVL30:
 398              	.L45:
 403:Middlewares/Third_Party/FreeRTOS/Source/event_groups.c **** 			{
 399              		.loc 1 403 4 view .LVU134
 400 00ec FFF7FEFF 		bl	vPortEnterCritical
 401              	.LVL31:
 406:Middlewares/Third_Party/FreeRTOS/Source/event_groups.c **** 
 402              		.loc 1 406 5 view .LVU135
 406:Middlewares/Third_Party/FreeRTOS/Source/event_groups.c **** 
 403              		.loc 1 406 14 is_stmt 0 view .LVU136
 404 00f0 3D68     		ldr	r5, [r7]
 405              	.LVL32:
 410:Middlewares/Third_Party/FreeRTOS/Source/event_groups.c **** 				{
 406              		.loc 1 410 5 is_stmt 1 view .LVU137
 407              	.LBB67:
 408              	.LBI67:
 656:Middlewares/Third_Party/FreeRTOS/Source/event_groups.c **** {
 409              		.loc 1 656 19 view .LVU138
 410              	.LBB68:
 658:Middlewares/Third_Party/FreeRTOS/Source/event_groups.c **** 
 411              		.loc 1 658 1 view .LVU139
 660:Middlewares/Third_Party/FreeRTOS/Source/event_groups.c **** 	{
 412              		.loc 1 660 2 view .LVU140
 660:Middlewares/Third_Party/FreeRTOS/Source/event_groups.c **** 	{
 413              		.loc 1 660 4 is_stmt 0 view .LVU141
 414 00f2 B9F1000F 		cmp	r9, #0
 415 00f6 08D1     		bne	.L27
 664:Middlewares/Third_Party/FreeRTOS/Source/event_groups.c **** 		{
 416              		.loc 1 664 3 is_stmt 1 view .LVU142
ARM GAS  C:\Users\Johannes\AppData\Local\Temp\cci40EjN.s 			page 25


 664:Middlewares/Third_Party/FreeRTOS/Source/event_groups.c **** 		{
 417              		.loc 1 664 5 is_stmt 0 view .LVU143
 418 00f8 2C42     		tst	r4, r5
 419 00fa 09D0     		beq	.L29
 420              	.L28:
 664:Middlewares/Third_Party/FreeRTOS/Source/event_groups.c **** 		{
 421              		.loc 1 664 5 view .LVU144
 422              	.LBE68:
 423              	.LBE67:
 412:Middlewares/Third_Party/FreeRTOS/Source/event_groups.c **** 					{
 424              		.loc 1 412 6 is_stmt 1 view .LVU145
 412:Middlewares/Third_Party/FreeRTOS/Source/event_groups.c **** 					{
 425              		.loc 1 412 8 is_stmt 0 view .LVU146
 426 00fc B8F1000F 		cmp	r8, #0
 427 0100 06D0     		beq	.L29
 414:Middlewares/Third_Party/FreeRTOS/Source/event_groups.c **** 					}
 428              		.loc 1 414 7 is_stmt 1 view .LVU147
 414:Middlewares/Third_Party/FreeRTOS/Source/event_groups.c **** 					}
 429              		.loc 1 414 32 is_stmt 0 view .LVU148
 430 0102 25EA0404 		bic	r4, r5, r4
 431              	.LVL33:
 414:Middlewares/Third_Party/FreeRTOS/Source/event_groups.c **** 					}
 432              		.loc 1 414 32 view .LVU149
 433 0106 3C60     		str	r4, [r7]
 434 0108 02E0     		b	.L29
 435              	.LVL34:
 436              	.L27:
 437              	.LBB70:
 438              	.LBB69:
 439              		.loc 1 677 3 is_stmt 1 view .LVU150
 440              		.loc 1 677 5 is_stmt 0 view .LVU151
 441 010a 34EA0503 		bics	r3, r4, r5
 442 010e F5D0     		beq	.L28
 443              	.LVL35:
 444              	.L29:
 445              		.loc 1 677 5 view .LVU152
 446              	.LBE69:
 447              	.LBE70:
 423:Middlewares/Third_Party/FreeRTOS/Source/event_groups.c **** 				}
 448              		.loc 1 423 30 is_stmt 1 view .LVU153
 425:Middlewares/Third_Party/FreeRTOS/Source/event_groups.c **** 			}
 449              		.loc 1 425 5 view .LVU154
 427:Middlewares/Third_Party/FreeRTOS/Source/event_groups.c **** 		}
 450              		.loc 1 427 4 view .LVU155
 451 0110 FFF7FEFF 		bl	vPortExitCritical
 452              	.LVL36:
 453 0114 CDE7     		b	.L26
 454              	.L47:
 455 0116 00BF     		.align	2
 456              	.L46:
 457 0118 04ED00E0 		.word	-536810236
 458              		.cfi_endproc
 459              	.LFE7:
 461              		.section	.text.xEventGroupClearBits,"ax",%progbits
 462              		.align	1
 463              		.p2align 2,,3
 464              		.global	xEventGroupClearBits
ARM GAS  C:\Users\Johannes\AppData\Local\Temp\cci40EjN.s 			page 26


 465              		.syntax unified
 466              		.thumb
 467              		.thumb_func
 468              		.fpu softvfp
 470              	xEventGroupClearBits:
 471              	.LVL37:
 472              	.LFB8:
 447:Middlewares/Third_Party/FreeRTOS/Source/event_groups.c **** EventGroup_t *pxEventBits = ( EventGroup_t * ) xEventGroup;
 473              		.loc 1 447 1 view -0
 474              		.cfi_startproc
 475              		@ args = 0, pretend = 0, frame = 0
 476              		@ frame_needed = 0, uses_anonymous_args = 0
 448:Middlewares/Third_Party/FreeRTOS/Source/event_groups.c **** EventBits_t uxReturn;
 477              		.loc 1 448 1 view .LVU157
 449:Middlewares/Third_Party/FreeRTOS/Source/event_groups.c **** 
 478              		.loc 1 449 1 view .LVU158
 453:Middlewares/Third_Party/FreeRTOS/Source/event_groups.c **** 	configASSERT( ( uxBitsToClear & eventEVENT_BITS_CONTROL_BYTES ) == 0 );
 479              		.loc 1 453 2 view .LVU159
 480 0000 58B1     		cbz	r0, .L55
 453:Middlewares/Third_Party/FreeRTOS/Source/event_groups.c **** 	configASSERT( ( uxBitsToClear & eventEVENT_BITS_CONTROL_BYTES ) == 0 );
 481              		.loc 1 453 29 discriminator 2 view .LVU160
 454:Middlewares/Third_Party/FreeRTOS/Source/event_groups.c **** 
 482              		.loc 1 454 2 discriminator 2 view .LVU161
 483 0002 11F07F4F 		tst	r1, #-16777216
 484 0006 11D0     		beq	.L51
 454:Middlewares/Third_Party/FreeRTOS/Source/event_groups.c **** 
 485              		.loc 1 454 2 view .LVU162
 486              	.LBB81:
 487              	.LBI81:
 191:Middlewares/Third_Party/FreeRTOS/Source/portable/GCC/ARM_CM3/portmacro.h **** {
 488              		.loc 2 191 30 view .LVU163
 489              	.LBB82:
 193:Middlewares/Third_Party/FreeRTOS/Source/portable/GCC/ARM_CM3/portmacro.h **** 
 490              		.loc 2 193 1 view .LVU164
 491              		.loc 2 195 2 view .LVU165
 492              		.syntax unified
 493              	@ 195 "Middlewares/Third_Party/FreeRTOS/Source/portable/GCC/ARM_CM3/portmacro.h" 1
 494 0008 4FF05003 			mov r3, #80												
 495 000c 83F31188 		msr basepri, r3											
 496 0010 BFF36F8F 		isb														
 497 0014 BFF34F8F 		dsb														
 498              	
 499              	@ 0 "" 2
 500              	.LVL38:
 501              		.thumb
 502              		.syntax unified
 503              	.L52:
 504              		.loc 2 195 2 is_stmt 0 view .LVU166
 505              	.LBE82:
 506              	.LBE81:
 454:Middlewares/Third_Party/FreeRTOS/Source/event_groups.c **** 
 507              		.loc 1 454 2 is_stmt 1 discriminator 2 view .LVU167
 454:Middlewares/Third_Party/FreeRTOS/Source/event_groups.c **** 
 508              		.loc 1 454 2 discriminator 2 view .LVU168
 454:Middlewares/Third_Party/FreeRTOS/Source/event_groups.c **** 
 509              		.loc 1 454 2 discriminator 2 view .LVU169
 454:Middlewares/Third_Party/FreeRTOS/Source/event_groups.c **** 
ARM GAS  C:\Users\Johannes\AppData\Local\Temp\cci40EjN.s 			page 27


 510              		.loc 1 454 2 discriminator 2 view .LVU170
 511 0018 FEE7     		b	.L52
 512              	.L55:
 453:Middlewares/Third_Party/FreeRTOS/Source/event_groups.c **** 	configASSERT( ( uxBitsToClear & eventEVENT_BITS_CONTROL_BYTES ) == 0 );
 513              		.loc 1 453 2 view .LVU171
 514              	.LBB83:
 515              	.LBI83:
 191:Middlewares/Third_Party/FreeRTOS/Source/portable/GCC/ARM_CM3/portmacro.h **** {
 516              		.loc 2 191 30 view .LVU172
 517              	.LBB84:
 193:Middlewares/Third_Party/FreeRTOS/Source/portable/GCC/ARM_CM3/portmacro.h **** 
 518              		.loc 2 193 1 view .LVU173
 519              		.loc 2 195 2 view .LVU174
 520              		.syntax unified
 521              	@ 195 "Middlewares/Third_Party/FreeRTOS/Source/portable/GCC/ARM_CM3/portmacro.h" 1
 522 001a 4FF05003 			mov r3, #80												
 523 001e 83F31188 		msr basepri, r3											
 524 0022 BFF36F8F 		isb														
 525 0026 BFF34F8F 		dsb														
 526              	
 527              	@ 0 "" 2
 528              	.LVL39:
 529              		.thumb
 530              		.syntax unified
 531              	.L50:
 532              		.loc 2 195 2 is_stmt 0 view .LVU175
 533              	.LBE84:
 534              	.LBE83:
 453:Middlewares/Third_Party/FreeRTOS/Source/event_groups.c **** 	configASSERT( ( uxBitsToClear & eventEVENT_BITS_CONTROL_BYTES ) == 0 );
 535              		.loc 1 453 2 is_stmt 1 discriminator 1 view .LVU176
 453:Middlewares/Third_Party/FreeRTOS/Source/event_groups.c **** 	configASSERT( ( uxBitsToClear & eventEVENT_BITS_CONTROL_BYTES ) == 0 );
 536              		.loc 1 453 2 discriminator 1 view .LVU177
 453:Middlewares/Third_Party/FreeRTOS/Source/event_groups.c **** 	configASSERT( ( uxBitsToClear & eventEVENT_BITS_CONTROL_BYTES ) == 0 );
 537              		.loc 1 453 2 discriminator 1 view .LVU178
 453:Middlewares/Third_Party/FreeRTOS/Source/event_groups.c **** 	configASSERT( ( uxBitsToClear & eventEVENT_BITS_CONTROL_BYTES ) == 0 );
 538              		.loc 1 453 2 discriminator 1 view .LVU179
 539 002a FEE7     		b	.L50
 540              	.L51:
 447:Middlewares/Third_Party/FreeRTOS/Source/event_groups.c **** EventGroup_t *pxEventBits = ( EventGroup_t * ) xEventGroup;
 541              		.loc 1 447 1 is_stmt 0 view .LVU180
 542 002c 70B5     		push	{r4, r5, r6, lr}
 543              	.LCFI2:
 544              		.cfi_def_cfa_offset 16
 545              		.cfi_offset 4, -16
 546              		.cfi_offset 5, -12
 547              		.cfi_offset 6, -8
 548              		.cfi_offset 14, -4
 549 002e 0546     		mov	r5, r0
 550              	.LVL40:
 447:Middlewares/Third_Party/FreeRTOS/Source/event_groups.c **** EventGroup_t *pxEventBits = ( EventGroup_t * ) xEventGroup;
 551              		.loc 1 447 1 view .LVU181
 552 0030 0C46     		mov	r4, r1
 553              	.LVL41:
 554              	.LBB85:
 555              	.LBI85:
 446:Middlewares/Third_Party/FreeRTOS/Source/event_groups.c **** {
 556              		.loc 1 446 13 is_stmt 1 view .LVU182
ARM GAS  C:\Users\Johannes\AppData\Local\Temp\cci40EjN.s 			page 28


 557              	.LBB86:
 454:Middlewares/Third_Party/FreeRTOS/Source/event_groups.c **** 
 558              		.loc 1 454 72 view .LVU183
 456:Middlewares/Third_Party/FreeRTOS/Source/event_groups.c **** 	{
 559              		.loc 1 456 2 view .LVU184
 560 0032 FFF7FEFF 		bl	vPortEnterCritical
 561              	.LVL42:
 458:Middlewares/Third_Party/FreeRTOS/Source/event_groups.c **** 
 562              		.loc 1 458 60 view .LVU185
 462:Middlewares/Third_Party/FreeRTOS/Source/event_groups.c **** 
 563              		.loc 1 462 3 view .LVU186
 462:Middlewares/Third_Party/FreeRTOS/Source/event_groups.c **** 
 564              		.loc 1 462 12 is_stmt 0 view .LVU187
 565 0036 2E68     		ldr	r6, [r5]
 566              	.LVL43:
 465:Middlewares/Third_Party/FreeRTOS/Source/event_groups.c **** 	}
 567              		.loc 1 465 3 is_stmt 1 view .LVU188
 465:Middlewares/Third_Party/FreeRTOS/Source/event_groups.c **** 	}
 568              		.loc 1 465 28 is_stmt 0 view .LVU189
 569 0038 26EA0404 		bic	r4, r6, r4
 570              	.LVL44:
 465:Middlewares/Third_Party/FreeRTOS/Source/event_groups.c **** 	}
 571              		.loc 1 465 28 view .LVU190
 572 003c 2C60     		str	r4, [r5]
 467:Middlewares/Third_Party/FreeRTOS/Source/event_groups.c **** 
 573              		.loc 1 467 2 is_stmt 1 view .LVU191
 574 003e FFF7FEFF 		bl	vPortExitCritical
 575              	.LVL45:
 469:Middlewares/Third_Party/FreeRTOS/Source/event_groups.c **** }
 576              		.loc 1 469 2 view .LVU192
 469:Middlewares/Third_Party/FreeRTOS/Source/event_groups.c **** }
 577              		.loc 1 469 2 is_stmt 0 view .LVU193
 578              	.LBE86:
 579              	.LBE85:
 470:Middlewares/Third_Party/FreeRTOS/Source/event_groups.c **** /*-----------------------------------------------------------*/
 580              		.loc 1 470 1 view .LVU194
 581 0042 3046     		mov	r0, r6
 582 0044 70BD     		pop	{r4, r5, r6, pc}
 470:Middlewares/Third_Party/FreeRTOS/Source/event_groups.c **** /*-----------------------------------------------------------*/
 583              		.loc 1 470 1 view .LVU195
 584              		.cfi_endproc
 585              	.LFE8:
 587 0046 00BF     		.section	.text.xEventGroupGetBitsFromISR,"ax",%progbits
 588              		.align	1
 589              		.p2align 2,,3
 590              		.global	xEventGroupGetBitsFromISR
 591              		.syntax unified
 592              		.thumb
 593              		.thumb_func
 594              		.fpu softvfp
 596              	xEventGroupGetBitsFromISR:
 597              	.LVL46:
 598              	.LFB9:
 489:Middlewares/Third_Party/FreeRTOS/Source/event_groups.c **** UBaseType_t uxSavedInterruptStatus;
 599              		.loc 1 489 1 is_stmt 1 view -0
 600              		.cfi_startproc
 601              		@ args = 0, pretend = 0, frame = 0
ARM GAS  C:\Users\Johannes\AppData\Local\Temp\cci40EjN.s 			page 29


 602              		@ frame_needed = 0, uses_anonymous_args = 0
 603              		@ link register save eliminated.
 490:Middlewares/Third_Party/FreeRTOS/Source/event_groups.c **** EventGroup_t *pxEventBits = ( EventGroup_t * ) xEventGroup;
 604              		.loc 1 490 1 view .LVU197
 491:Middlewares/Third_Party/FreeRTOS/Source/event_groups.c **** EventBits_t uxReturn;
 605              		.loc 1 491 1 view .LVU198
 492:Middlewares/Third_Party/FreeRTOS/Source/event_groups.c **** 
 606              		.loc 1 492 1 view .LVU199
 494:Middlewares/Third_Party/FreeRTOS/Source/event_groups.c **** 	{
 607              		.loc 1 494 2 view .LVU200
 608              	.LBB87:
 609              	.LBI87:
 196:Middlewares/Third_Party/FreeRTOS/Source/portable/GCC/ARM_CM3/portmacro.h **** 	(
 197:Middlewares/Third_Party/FreeRTOS/Source/portable/GCC/ARM_CM3/portmacro.h **** 		"	mov %0, %1												\n" \
 198:Middlewares/Third_Party/FreeRTOS/Source/portable/GCC/ARM_CM3/portmacro.h **** 		"	msr basepri, %0											\n" \
 199:Middlewares/Third_Party/FreeRTOS/Source/portable/GCC/ARM_CM3/portmacro.h **** 		"	isb														\n" \
 200:Middlewares/Third_Party/FreeRTOS/Source/portable/GCC/ARM_CM3/portmacro.h **** 		"	dsb														\n" \
 201:Middlewares/Third_Party/FreeRTOS/Source/portable/GCC/ARM_CM3/portmacro.h **** 		:"=r" (ulNewBASEPRI) : "i" ( configMAX_SYSCALL_INTERRUPT_PRIORITY ) : "memory"
 202:Middlewares/Third_Party/FreeRTOS/Source/portable/GCC/ARM_CM3/portmacro.h **** 	);
 203:Middlewares/Third_Party/FreeRTOS/Source/portable/GCC/ARM_CM3/portmacro.h **** }
 204:Middlewares/Third_Party/FreeRTOS/Source/portable/GCC/ARM_CM3/portmacro.h **** 
 205:Middlewares/Third_Party/FreeRTOS/Source/portable/GCC/ARM_CM3/portmacro.h **** /*-----------------------------------------------------------*/
 206:Middlewares/Third_Party/FreeRTOS/Source/portable/GCC/ARM_CM3/portmacro.h **** 
 207:Middlewares/Third_Party/FreeRTOS/Source/portable/GCC/ARM_CM3/portmacro.h **** portFORCE_INLINE static uint32_t ulPortRaiseBASEPRI( void )
 610              		.loc 2 207 34 view .LVU201
 611              	.LBB88:
 208:Middlewares/Third_Party/FreeRTOS/Source/portable/GCC/ARM_CM3/portmacro.h **** {
 209:Middlewares/Third_Party/FreeRTOS/Source/portable/GCC/ARM_CM3/portmacro.h **** uint32_t ulOriginalBASEPRI, ulNewBASEPRI;
 612              		.loc 2 209 1 view .LVU202
 210:Middlewares/Third_Party/FreeRTOS/Source/portable/GCC/ARM_CM3/portmacro.h **** 
 211:Middlewares/Third_Party/FreeRTOS/Source/portable/GCC/ARM_CM3/portmacro.h **** 	__asm volatile
 613              		.loc 2 211 2 view .LVU203
 614              		.syntax unified
 615              	@ 211 "Middlewares/Third_Party/FreeRTOS/Source/portable/GCC/ARM_CM3/portmacro.h" 1
 616 0000 EFF31183 			mrs r3, basepri											
 617 0004 4FF05002 		mov r2, #80												
 618 0008 82F31188 		msr basepri, r2											
 619 000c BFF36F8F 		isb														
 620 0010 BFF34F8F 		dsb														
 621              	
 622              	@ 0 "" 2
 623              	.LVL47:
 212:Middlewares/Third_Party/FreeRTOS/Source/portable/GCC/ARM_CM3/portmacro.h **** 	(
 213:Middlewares/Third_Party/FreeRTOS/Source/portable/GCC/ARM_CM3/portmacro.h **** 		"	mrs %0, basepri											\n" \
 214:Middlewares/Third_Party/FreeRTOS/Source/portable/GCC/ARM_CM3/portmacro.h **** 		"	mov %1, %2												\n" \
 215:Middlewares/Third_Party/FreeRTOS/Source/portable/GCC/ARM_CM3/portmacro.h **** 		"	msr basepri, %1											\n" \
 216:Middlewares/Third_Party/FreeRTOS/Source/portable/GCC/ARM_CM3/portmacro.h **** 		"	isb														\n" \
 217:Middlewares/Third_Party/FreeRTOS/Source/portable/GCC/ARM_CM3/portmacro.h **** 		"	dsb														\n" \
 218:Middlewares/Third_Party/FreeRTOS/Source/portable/GCC/ARM_CM3/portmacro.h **** 		:"=r" (ulOriginalBASEPRI), "=r" (ulNewBASEPRI) : "i" ( configMAX_SYSCALL_INTERRUPT_PRIORITY ) : "
 219:Middlewares/Third_Party/FreeRTOS/Source/portable/GCC/ARM_CM3/portmacro.h **** 	);
 220:Middlewares/Third_Party/FreeRTOS/Source/portable/GCC/ARM_CM3/portmacro.h **** 
 221:Middlewares/Third_Party/FreeRTOS/Source/portable/GCC/ARM_CM3/portmacro.h **** 	/* This return will not be reached but is necessary to prevent compiler
 222:Middlewares/Third_Party/FreeRTOS/Source/portable/GCC/ARM_CM3/portmacro.h **** 	warnings. */
 223:Middlewares/Third_Party/FreeRTOS/Source/portable/GCC/ARM_CM3/portmacro.h **** 	return ulOriginalBASEPRI;
 624              		.loc 2 223 2 view .LVU204
 625              		.loc 2 223 2 is_stmt 0 view .LVU205
 626              		.thumb
ARM GAS  C:\Users\Johannes\AppData\Local\Temp\cci40EjN.s 			page 30


 627              		.syntax unified
 628              	.LBE88:
 629              	.LBE87:
 496:Middlewares/Third_Party/FreeRTOS/Source/event_groups.c **** 	}
 630              		.loc 1 496 3 is_stmt 1 view .LVU206
 496:Middlewares/Third_Party/FreeRTOS/Source/event_groups.c **** 	}
 631              		.loc 1 496 12 is_stmt 0 view .LVU207
 632 0014 0068     		ldr	r0, [r0]
 633              	.LVL48:
 498:Middlewares/Third_Party/FreeRTOS/Source/event_groups.c **** 
 634              		.loc 1 498 2 is_stmt 1 view .LVU208
 635              	.LBB89:
 636              	.LBI89:
 224:Middlewares/Third_Party/FreeRTOS/Source/portable/GCC/ARM_CM3/portmacro.h **** }
 225:Middlewares/Third_Party/FreeRTOS/Source/portable/GCC/ARM_CM3/portmacro.h **** /*-----------------------------------------------------------*/
 226:Middlewares/Third_Party/FreeRTOS/Source/portable/GCC/ARM_CM3/portmacro.h **** 
 227:Middlewares/Third_Party/FreeRTOS/Source/portable/GCC/ARM_CM3/portmacro.h **** portFORCE_INLINE static void vPortSetBASEPRI( uint32_t ulNewMaskValue )
 637              		.loc 2 227 30 view .LVU209
 638              	.LBB90:
 228:Middlewares/Third_Party/FreeRTOS/Source/portable/GCC/ARM_CM3/portmacro.h **** {
 229:Middlewares/Third_Party/FreeRTOS/Source/portable/GCC/ARM_CM3/portmacro.h **** 	__asm volatile
 639              		.loc 2 229 2 view .LVU210
 640              		.syntax unified
 641              	@ 229 "Middlewares/Third_Party/FreeRTOS/Source/portable/GCC/ARM_CM3/portmacro.h" 1
 642 0016 83F31188 			msr basepri, r3	
 643              	@ 0 "" 2
 644              	.LVL49:
 645              		.loc 2 229 2 is_stmt 0 view .LVU211
 646              		.thumb
 647              		.syntax unified
 648              	.LBE90:
 649              	.LBE89:
 500:Middlewares/Third_Party/FreeRTOS/Source/event_groups.c **** }
 650              		.loc 1 500 2 is_stmt 1 view .LVU212
 501:Middlewares/Third_Party/FreeRTOS/Source/event_groups.c **** /*-----------------------------------------------------------*/
 651              		.loc 1 501 1 is_stmt 0 view .LVU213
 652 001a 7047     		bx	lr
 653              		.cfi_endproc
 654              	.LFE9:
 656              		.section	.text.xEventGroupSetBits,"ax",%progbits
 657              		.align	1
 658              		.p2align 2,,3
 659              		.global	xEventGroupSetBits
 660              		.syntax unified
 661              		.thumb
 662              		.thumb_func
 663              		.fpu softvfp
 665              	xEventGroupSetBits:
 666              	.LVL50:
 667              	.LFB10:
 505:Middlewares/Third_Party/FreeRTOS/Source/event_groups.c **** ListItem_t *pxListItem, *pxNext;
 668              		.loc 1 505 1 is_stmt 1 view -0
 669              		.cfi_startproc
 670              		@ args = 0, pretend = 0, frame = 0
 671              		@ frame_needed = 0, uses_anonymous_args = 0
 506:Middlewares/Third_Party/FreeRTOS/Source/event_groups.c **** ListItem_t const *pxListEnd;
 672              		.loc 1 506 1 view .LVU215
ARM GAS  C:\Users\Johannes\AppData\Local\Temp\cci40EjN.s 			page 31


 507:Middlewares/Third_Party/FreeRTOS/Source/event_groups.c **** List_t *pxList;
 673              		.loc 1 507 1 view .LVU216
 508:Middlewares/Third_Party/FreeRTOS/Source/event_groups.c **** EventBits_t uxBitsToClear = 0, uxBitsWaitedFor, uxControlBits;
 674              		.loc 1 508 1 view .LVU217
 509:Middlewares/Third_Party/FreeRTOS/Source/event_groups.c **** EventGroup_t *pxEventBits = ( EventGroup_t * ) xEventGroup;
 675              		.loc 1 509 1 view .LVU218
 510:Middlewares/Third_Party/FreeRTOS/Source/event_groups.c **** BaseType_t xMatchFound = pdFALSE;
 676              		.loc 1 510 1 view .LVU219
 511:Middlewares/Third_Party/FreeRTOS/Source/event_groups.c **** 
 677              		.loc 1 511 1 view .LVU220
 515:Middlewares/Third_Party/FreeRTOS/Source/event_groups.c **** 	configASSERT( ( uxBitsToSet & eventEVENT_BITS_CONTROL_BYTES ) == 0 );
 678              		.loc 1 515 2 view .LVU221
 679 0000 68B1     		cbz	r0, .L75
 515:Middlewares/Third_Party/FreeRTOS/Source/event_groups.c **** 	configASSERT( ( uxBitsToSet & eventEVENT_BITS_CONTROL_BYTES ) == 0 );
 680              		.loc 1 515 29 discriminator 2 view .LVU222
 516:Middlewares/Third_Party/FreeRTOS/Source/event_groups.c **** 
 681              		.loc 1 516 2 discriminator 2 view .LVU223
 505:Middlewares/Third_Party/FreeRTOS/Source/event_groups.c **** ListItem_t *pxListItem, *pxNext;
 682              		.loc 1 505 1 is_stmt 0 discriminator 2 view .LVU224
 683 0002 2DE9F041 		push	{r4, r5, r6, r7, r8, lr}
 684              	.LCFI3:
 685              		.cfi_def_cfa_offset 24
 686              		.cfi_offset 4, -24
 687              		.cfi_offset 5, -20
 688              		.cfi_offset 6, -16
 689              		.cfi_offset 7, -12
 690              		.cfi_offset 8, -8
 691              		.cfi_offset 14, -4
 516:Middlewares/Third_Party/FreeRTOS/Source/event_groups.c **** 
 692              		.loc 1 516 2 discriminator 2 view .LVU225
 693 0006 11F07F46 		ands	r6, r1, #-16777216
 694 000a 11D0     		beq	.L60
 516:Middlewares/Third_Party/FreeRTOS/Source/event_groups.c **** 
 695              		.loc 1 516 2 is_stmt 1 view .LVU226
 696              	.LBB101:
 697              	.LBI101:
 191:Middlewares/Third_Party/FreeRTOS/Source/portable/GCC/ARM_CM3/portmacro.h **** {
 698              		.loc 2 191 30 view .LVU227
 699              	.LBB102:
 193:Middlewares/Third_Party/FreeRTOS/Source/portable/GCC/ARM_CM3/portmacro.h **** 
 700              		.loc 2 193 1 view .LVU228
 195:Middlewares/Third_Party/FreeRTOS/Source/portable/GCC/ARM_CM3/portmacro.h **** 	(
 701              		.loc 2 195 2 view .LVU229
 702              		.syntax unified
 703              	@ 195 "Middlewares/Third_Party/FreeRTOS/Source/portable/GCC/ARM_CM3/portmacro.h" 1
 704 000c 4FF05003 			mov r3, #80												
 705 0010 83F31188 		msr basepri, r3											
 706 0014 BFF36F8F 		isb														
 707 0018 BFF34F8F 		dsb														
 708              	
 709              	@ 0 "" 2
 710              	.LVL51:
 711              		.thumb
 712              		.syntax unified
 713              	.L61:
 195:Middlewares/Third_Party/FreeRTOS/Source/portable/GCC/ARM_CM3/portmacro.h **** 	(
 714              		.loc 2 195 2 is_stmt 0 view .LVU230
ARM GAS  C:\Users\Johannes\AppData\Local\Temp\cci40EjN.s 			page 32


 715              	.LBE102:
 716              	.LBE101:
 516:Middlewares/Third_Party/FreeRTOS/Source/event_groups.c **** 
 717              		.loc 1 516 2 is_stmt 1 discriminator 2 view .LVU231
 516:Middlewares/Third_Party/FreeRTOS/Source/event_groups.c **** 
 718              		.loc 1 516 2 discriminator 2 view .LVU232
 516:Middlewares/Third_Party/FreeRTOS/Source/event_groups.c **** 
 719              		.loc 1 516 2 discriminator 2 view .LVU233
 516:Middlewares/Third_Party/FreeRTOS/Source/event_groups.c **** 
 720              		.loc 1 516 2 discriminator 2 view .LVU234
 721 001c FEE7     		b	.L61
 722              	.L75:
 723              	.LCFI4:
 724              		.cfi_def_cfa_offset 0
 725              		.cfi_restore 4
 726              		.cfi_restore 5
 727              		.cfi_restore 6
 728              		.cfi_restore 7
 729              		.cfi_restore 8
 730              		.cfi_restore 14
 515:Middlewares/Third_Party/FreeRTOS/Source/event_groups.c **** 	configASSERT( ( uxBitsToSet & eventEVENT_BITS_CONTROL_BYTES ) == 0 );
 731              		.loc 1 515 2 view .LVU235
 732              	.LBB103:
 733              	.LBI103:
 191:Middlewares/Third_Party/FreeRTOS/Source/portable/GCC/ARM_CM3/portmacro.h **** {
 734              		.loc 2 191 30 view .LVU236
 735              	.LBB104:
 193:Middlewares/Third_Party/FreeRTOS/Source/portable/GCC/ARM_CM3/portmacro.h **** 
 736              		.loc 2 193 1 view .LVU237
 195:Middlewares/Third_Party/FreeRTOS/Source/portable/GCC/ARM_CM3/portmacro.h **** 	(
 737              		.loc 2 195 2 view .LVU238
 738              		.syntax unified
 739              	@ 195 "Middlewares/Third_Party/FreeRTOS/Source/portable/GCC/ARM_CM3/portmacro.h" 1
 740 001e 4FF05003 			mov r3, #80												
 741 0022 83F31188 		msr basepri, r3											
 742 0026 BFF36F8F 		isb														
 743 002a BFF34F8F 		dsb														
 744              	
 745              	@ 0 "" 2
 746              	.LVL52:
 747              		.thumb
 748              		.syntax unified
 749              	.L59:
 195:Middlewares/Third_Party/FreeRTOS/Source/portable/GCC/ARM_CM3/portmacro.h **** 	(
 750              		.loc 2 195 2 is_stmt 0 view .LVU239
 751              	.LBE104:
 752              	.LBE103:
 515:Middlewares/Third_Party/FreeRTOS/Source/event_groups.c **** 	configASSERT( ( uxBitsToSet & eventEVENT_BITS_CONTROL_BYTES ) == 0 );
 753              		.loc 1 515 2 is_stmt 1 discriminator 1 view .LVU240
 515:Middlewares/Third_Party/FreeRTOS/Source/event_groups.c **** 	configASSERT( ( uxBitsToSet & eventEVENT_BITS_CONTROL_BYTES ) == 0 );
 754              		.loc 1 515 2 discriminator 1 view .LVU241
 515:Middlewares/Third_Party/FreeRTOS/Source/event_groups.c **** 	configASSERT( ( uxBitsToSet & eventEVENT_BITS_CONTROL_BYTES ) == 0 );
 755              		.loc 1 515 2 discriminator 1 view .LVU242
 515:Middlewares/Third_Party/FreeRTOS/Source/event_groups.c **** 	configASSERT( ( uxBitsToSet & eventEVENT_BITS_CONTROL_BYTES ) == 0 );
 756              		.loc 1 515 2 discriminator 1 view .LVU243
 757 002e FEE7     		b	.L59
 758              	.L60:
ARM GAS  C:\Users\Johannes\AppData\Local\Temp\cci40EjN.s 			page 33


 759              	.LCFI5:
 760              		.cfi_def_cfa_offset 24
 761              		.cfi_offset 4, -24
 762              		.cfi_offset 5, -20
 763              		.cfi_offset 6, -16
 764              		.cfi_offset 7, -12
 765              		.cfi_offset 8, -8
 766              		.cfi_offset 14, -4
 515:Middlewares/Third_Party/FreeRTOS/Source/event_groups.c **** 	configASSERT( ( uxBitsToSet & eventEVENT_BITS_CONTROL_BYTES ) == 0 );
 767              		.loc 1 515 2 is_stmt 0 discriminator 1 view .LVU244
 768 0030 0546     		mov	r5, r0
 769 0032 0C46     		mov	r4, r1
 770              	.LVL53:
 771              	.LBB105:
 772              	.LBI105:
 504:Middlewares/Third_Party/FreeRTOS/Source/event_groups.c **** {
 773              		.loc 1 504 13 is_stmt 1 view .LVU245
 774              	.LBB106:
 516:Middlewares/Third_Party/FreeRTOS/Source/event_groups.c **** 
 775              		.loc 1 516 70 view .LVU246
 518:Middlewares/Third_Party/FreeRTOS/Source/event_groups.c **** 	pxListEnd = listGET_END_MARKER( pxList ); /*lint !e826 !e740 The mini list structure is used as th
 776              		.loc 1 518 2 view .LVU247
 519:Middlewares/Third_Party/FreeRTOS/Source/event_groups.c **** 	vTaskSuspendAll();
 777              		.loc 1 519 2 view .LVU248
 520:Middlewares/Third_Party/FreeRTOS/Source/event_groups.c **** 	{
 778              		.loc 1 520 2 is_stmt 0 view .LVU249
 779 0034 FFF7FEFF 		bl	vTaskSuspendAll
 780              	.LVL54:
 527:Middlewares/Third_Party/FreeRTOS/Source/event_groups.c **** 
 781              		.loc 1 527 28 view .LVU250
 782 0038 2968     		ldr	r1, [r5]
 524:Middlewares/Third_Party/FreeRTOS/Source/event_groups.c **** 
 783              		.loc 1 524 14 view .LVU251
 784 003a 2869     		ldr	r0, [r5, #16]
 527:Middlewares/Third_Party/FreeRTOS/Source/event_groups.c **** 
 785              		.loc 1 527 28 view .LVU252
 786 003c 2143     		orrs	r1, r1, r4
 519:Middlewares/Third_Party/FreeRTOS/Source/event_groups.c **** 	vTaskSuspendAll();
 787              		.loc 1 519 12 view .LVU253
 788 003e 05F10C04 		add	r4, r5, #12
 789              	.LVL55:
 520:Middlewares/Third_Party/FreeRTOS/Source/event_groups.c **** 	{
 790              		.loc 1 520 2 is_stmt 1 view .LVU254
 522:Middlewares/Third_Party/FreeRTOS/Source/event_groups.c **** 
 791              		.loc 1 522 56 view .LVU255
 524:Middlewares/Third_Party/FreeRTOS/Source/event_groups.c **** 
 792              		.loc 1 524 3 view .LVU256
 527:Middlewares/Third_Party/FreeRTOS/Source/event_groups.c **** 
 793              		.loc 1 527 3 view .LVU257
 530:Middlewares/Third_Party/FreeRTOS/Source/event_groups.c **** 		{
 794              		.loc 1 530 8 is_stmt 0 view .LVU258
 795 0042 8442     		cmp	r4, r0
 527:Middlewares/Third_Party/FreeRTOS/Source/event_groups.c **** 
 796              		.loc 1 527 28 view .LVU259
 797 0044 2960     		str	r1, [r5]
 530:Middlewares/Third_Party/FreeRTOS/Source/event_groups.c **** 		{
 798              		.loc 1 530 3 is_stmt 1 view .LVU260
ARM GAS  C:\Users\Johannes\AppData\Local\Temp\cci40EjN.s 			page 34


 799              	.LVL56:
 530:Middlewares/Third_Party/FreeRTOS/Source/event_groups.c **** 		{
 800              		.loc 1 530 8 is_stmt 0 view .LVU261
 801 0046 0CD1     		bne	.L67
 530:Middlewares/Third_Party/FreeRTOS/Source/event_groups.c **** 		{
 802              		.loc 1 530 8 view .LVU262
 803 0048 1BE0     		b	.L62
 804              	.LVL57:
 805              	.L77:
 543:Middlewares/Third_Party/FreeRTOS/Source/event_groups.c **** 				{
 806              		.loc 1 543 7 view .LVU263
 807 004a 3FB1     		cbz	r7, .L65
 808              	.L64:
 567:Middlewares/Third_Party/FreeRTOS/Source/event_groups.c **** 				}
 809              		.loc 1 567 6 is_stmt 1 view .LVU264
 565:Middlewares/Third_Party/FreeRTOS/Source/event_groups.c **** 				{
 810              		.loc 1 565 7 is_stmt 0 view .LVU265
 811 004c D201     		lsls	r2, r2, #7
 812              	.LVL58:
 579:Middlewares/Third_Party/FreeRTOS/Source/event_groups.c **** 			}
 813              		.loc 1 579 5 view .LVU266
 814 004e 41F00071 		orr	r1, r1, #33554432
 567:Middlewares/Third_Party/FreeRTOS/Source/event_groups.c **** 				}
 815              		.loc 1 567 20 view .LVU267
 816 0052 48BF     		it	mi
 817 0054 1E43     		orrmi	r6, r6, r3
 818              	.LVL59:
 571:Middlewares/Third_Party/FreeRTOS/Source/event_groups.c **** 				}
 819              		.loc 1 571 30 is_stmt 1 view .LVU268
 579:Middlewares/Third_Party/FreeRTOS/Source/event_groups.c **** 			}
 820              		.loc 1 579 5 view .LVU269
 821 0056 FFF7FEFF 		bl	vTaskRemoveFromUnorderedEventList
 822              	.LVL60:
 579:Middlewares/Third_Party/FreeRTOS/Source/event_groups.c **** 			}
 823              		.loc 1 579 5 is_stmt 0 view .LVU270
 824 005a 2968     		ldr	r1, [r5]
 825              	.L65:
 826              	.LVL61:
 530:Middlewares/Third_Party/FreeRTOS/Source/event_groups.c **** 		{
 827              		.loc 1 530 8 view .LVU271
 828 005c 4445     		cmp	r4, r8
 829 005e 4046     		mov	r0, r8
 830 0060 0DD0     		beq	.L76
 831              	.LVL62:
 832              	.L67:
 532:Middlewares/Third_Party/FreeRTOS/Source/event_groups.c **** 			uxBitsWaitedFor = listGET_LIST_ITEM_VALUE( pxListItem );
 833              		.loc 1 532 4 is_stmt 1 view .LVU272
 543:Middlewares/Third_Party/FreeRTOS/Source/event_groups.c **** 				{
 834              		.loc 1 543 5 view .LVU273
 552:Middlewares/Third_Party/FreeRTOS/Source/event_groups.c **** 			{
 835              		.loc 1 552 9 view .LVU274
 565:Middlewares/Third_Party/FreeRTOS/Source/event_groups.c **** 				{
 836              		.loc 1 565 5 view .LVU275
 532:Middlewares/Third_Party/FreeRTOS/Source/event_groups.c **** 			uxBitsWaitedFor = listGET_LIST_ITEM_VALUE( pxListItem );
 837              		.loc 1 532 11 is_stmt 0 view .LVU276
 838 0062 D0E90028 		ldrd	r2, r8, [r0]
 839              	.LVL63:
ARM GAS  C:\Users\Johannes\AppData\Local\Temp\cci40EjN.s 			page 35


 533:Middlewares/Third_Party/FreeRTOS/Source/event_groups.c **** 			xMatchFound = pdFALSE;
 840              		.loc 1 533 4 is_stmt 1 view .LVU277
 534:Middlewares/Third_Party/FreeRTOS/Source/event_groups.c **** 
 841              		.loc 1 534 4 view .LVU278
 537:Middlewares/Third_Party/FreeRTOS/Source/event_groups.c **** 			uxBitsWaitedFor &= ~eventEVENT_BITS_CONTROL_BYTES;
 842              		.loc 1 537 4 view .LVU279
 538:Middlewares/Third_Party/FreeRTOS/Source/event_groups.c **** 
 843              		.loc 1 538 4 view .LVU280
 538:Middlewares/Third_Party/FreeRTOS/Source/event_groups.c **** 
 844              		.loc 1 538 20 is_stmt 0 view .LVU281
 845 0066 22F07F43 		bic	r3, r2, #-16777216
 846              	.LVL64:
 540:Middlewares/Third_Party/FreeRTOS/Source/event_groups.c **** 			{
 847              		.loc 1 540 4 is_stmt 1 view .LVU282
 540:Middlewares/Third_Party/FreeRTOS/Source/event_groups.c **** 			{
 848              		.loc 1 540 6 is_stmt 0 view .LVU283
 849 006a 12F0806F 		tst	r2, #67108864
 850 006e 01EA0307 		and	r7, r1, r3
 851 0072 EAD0     		beq	.L77
 552:Middlewares/Third_Party/FreeRTOS/Source/event_groups.c **** 			{
 852              		.loc 1 552 11 view .LVU284
 853 0074 BB42     		cmp	r3, r7
 854 0076 E9D0     		beq	.L64
 855              	.LVL65:
 530:Middlewares/Third_Party/FreeRTOS/Source/event_groups.c **** 		{
 856              		.loc 1 530 8 view .LVU285
 857 0078 4445     		cmp	r4, r8
 858 007a 4046     		mov	r0, r8
 859 007c F1D1     		bne	.L67
 860              	.LVL66:
 861              	.L76:
 530:Middlewares/Third_Party/FreeRTOS/Source/event_groups.c **** 		{
 862              		.loc 1 530 8 view .LVU286
 863 007e 21EA0601 		bic	r1, r1, r6
 864              	.LVL67:
 865              	.L62:
 590:Middlewares/Third_Party/FreeRTOS/Source/event_groups.c **** 	}
 866              		.loc 1 590 3 is_stmt 1 view .LVU287
 590:Middlewares/Third_Party/FreeRTOS/Source/event_groups.c **** 	}
 867              		.loc 1 590 28 is_stmt 0 view .LVU288
 868 0082 2960     		str	r1, [r5]
 592:Middlewares/Third_Party/FreeRTOS/Source/event_groups.c **** 
 869              		.loc 1 592 2 is_stmt 1 view .LVU289
 592:Middlewares/Third_Party/FreeRTOS/Source/event_groups.c **** 
 870              		.loc 1 592 11 is_stmt 0 view .LVU290
 871 0084 FFF7FEFF 		bl	xTaskResumeAll
 872              	.LVL68:
 594:Middlewares/Third_Party/FreeRTOS/Source/event_groups.c **** }
 873              		.loc 1 594 2 is_stmt 1 view .LVU291
 594:Middlewares/Third_Party/FreeRTOS/Source/event_groups.c **** }
 874              		.loc 1 594 2 is_stmt 0 view .LVU292
 875              	.LBE106:
 876              	.LBE105:
 595:Middlewares/Third_Party/FreeRTOS/Source/event_groups.c **** /*-----------------------------------------------------------*/
 877              		.loc 1 595 1 view .LVU293
 878 0088 2868     		ldr	r0, [r5]
 879 008a BDE8F081 		pop	{r4, r5, r6, r7, r8, pc}
ARM GAS  C:\Users\Johannes\AppData\Local\Temp\cci40EjN.s 			page 36


 595:Middlewares/Third_Party/FreeRTOS/Source/event_groups.c **** /*-----------------------------------------------------------*/
 880              		.loc 1 595 1 view .LVU294
 881              		.cfi_endproc
 882              	.LFE10:
 884 008e 00BF     		.section	.text.xEventGroupSync,"ax",%progbits
 885              		.align	1
 886              		.p2align 2,,3
 887              		.global	xEventGroupSync
 888              		.syntax unified
 889              		.thumb
 890              		.thumb_func
 891              		.fpu softvfp
 893              	xEventGroupSync:
 894              	.LVL69:
 895              	.LFB6:
 177:Middlewares/Third_Party/FreeRTOS/Source/event_groups.c **** EventBits_t uxOriginalBitValue, uxReturn;
 896              		.loc 1 177 1 is_stmt 1 view -0
 897              		.cfi_startproc
 898              		@ args = 0, pretend = 0, frame = 0
 899              		@ frame_needed = 0, uses_anonymous_args = 0
 178:Middlewares/Third_Party/FreeRTOS/Source/event_groups.c **** EventGroup_t *pxEventBits = ( EventGroup_t * ) xEventGroup;
 900              		.loc 1 178 1 view .LVU296
 179:Middlewares/Third_Party/FreeRTOS/Source/event_groups.c **** BaseType_t xAlreadyYielded;
 901              		.loc 1 179 1 view .LVU297
 180:Middlewares/Third_Party/FreeRTOS/Source/event_groups.c **** BaseType_t xTimeoutOccurred = pdFALSE;
 902              		.loc 1 180 1 view .LVU298
 181:Middlewares/Third_Party/FreeRTOS/Source/event_groups.c **** 
 903              		.loc 1 181 1 view .LVU299
 183:Middlewares/Third_Party/FreeRTOS/Source/event_groups.c **** 	configASSERT( uxBitsToWaitFor != 0 );
 904              		.loc 1 183 2 view .LVU300
 905 0000 12F07F4F 		tst	r2, #-16777216
 906 0004 08D0     		beq	.L79
 183:Middlewares/Third_Party/FreeRTOS/Source/event_groups.c **** 	configASSERT( uxBitsToWaitFor != 0 );
 907              		.loc 1 183 2 view .LVU301
 908              	.LBB107:
 909              	.LBI107:
 191:Middlewares/Third_Party/FreeRTOS/Source/portable/GCC/ARM_CM3/portmacro.h **** {
 910              		.loc 2 191 30 view .LVU302
 911              	.LBB108:
 193:Middlewares/Third_Party/FreeRTOS/Source/portable/GCC/ARM_CM3/portmacro.h **** 
 912              		.loc 2 193 1 view .LVU303
 195:Middlewares/Third_Party/FreeRTOS/Source/portable/GCC/ARM_CM3/portmacro.h **** 	(
 913              		.loc 2 195 2 view .LVU304
 914              		.syntax unified
 915              	@ 195 "Middlewares/Third_Party/FreeRTOS/Source/portable/GCC/ARM_CM3/portmacro.h" 1
 916 0006 4FF05003 			mov r3, #80												
 917 000a 83F31188 		msr basepri, r3											
 918 000e BFF36F8F 		isb														
 919 0012 BFF34F8F 		dsb														
 920              	
 921              	@ 0 "" 2
 922              	.LVL70:
 923              		.thumb
 924              		.syntax unified
 925              	.L80:
 195:Middlewares/Third_Party/FreeRTOS/Source/portable/GCC/ARM_CM3/portmacro.h **** 	(
 926              		.loc 2 195 2 is_stmt 0 view .LVU305
ARM GAS  C:\Users\Johannes\AppData\Local\Temp\cci40EjN.s 			page 37


 927              	.LBE108:
 928              	.LBE107:
 183:Middlewares/Third_Party/FreeRTOS/Source/event_groups.c **** 	configASSERT( uxBitsToWaitFor != 0 );
 929              		.loc 1 183 2 is_stmt 1 discriminator 1 view .LVU306
 183:Middlewares/Third_Party/FreeRTOS/Source/event_groups.c **** 	configASSERT( uxBitsToWaitFor != 0 );
 930              		.loc 1 183 2 discriminator 1 view .LVU307
 183:Middlewares/Third_Party/FreeRTOS/Source/event_groups.c **** 	configASSERT( uxBitsToWaitFor != 0 );
 931              		.loc 1 183 2 discriminator 1 view .LVU308
 183:Middlewares/Third_Party/FreeRTOS/Source/event_groups.c **** 	configASSERT( uxBitsToWaitFor != 0 );
 932              		.loc 1 183 2 discriminator 1 view .LVU309
 933 0016 FEE7     		b	.L80
 934              	.LVL71:
 935              	.L79:
 183:Middlewares/Third_Party/FreeRTOS/Source/event_groups.c **** 	configASSERT( uxBitsToWaitFor != 0 );
 936              		.loc 1 183 74 discriminator 2 view .LVU310
 184:Middlewares/Third_Party/FreeRTOS/Source/event_groups.c **** 	#if ( ( INCLUDE_xTaskGetSchedulerState == 1 ) || ( configUSE_TIMERS == 1 ) )
 937              		.loc 1 184 2 discriminator 2 view .LVU311
 938 0018 42B9     		cbnz	r2, .L81
 184:Middlewares/Third_Party/FreeRTOS/Source/event_groups.c **** 	#if ( ( INCLUDE_xTaskGetSchedulerState == 1 ) || ( configUSE_TIMERS == 1 ) )
 939              		.loc 1 184 2 view .LVU312
 940              	.LBB109:
 941              	.LBI109:
 191:Middlewares/Third_Party/FreeRTOS/Source/portable/GCC/ARM_CM3/portmacro.h **** {
 942              		.loc 2 191 30 view .LVU313
 943              	.LBB110:
 193:Middlewares/Third_Party/FreeRTOS/Source/portable/GCC/ARM_CM3/portmacro.h **** 
 944              		.loc 2 193 1 view .LVU314
 195:Middlewares/Third_Party/FreeRTOS/Source/portable/GCC/ARM_CM3/portmacro.h **** 	(
 945              		.loc 2 195 2 view .LVU315
 946              		.syntax unified
 947              	@ 195 "Middlewares/Third_Party/FreeRTOS/Source/portable/GCC/ARM_CM3/portmacro.h" 1
 948 001a 4FF05003 			mov r3, #80												
 949 001e 83F31188 		msr basepri, r3											
 950 0022 BFF36F8F 		isb														
 951 0026 BFF34F8F 		dsb														
 952              	
 953              	@ 0 "" 2
 954              	.LVL72:
 955              		.thumb
 956              		.syntax unified
 957              	.L82:
 195:Middlewares/Third_Party/FreeRTOS/Source/portable/GCC/ARM_CM3/portmacro.h **** 	(
 958              		.loc 2 195 2 is_stmt 0 view .LVU316
 959              	.LBE110:
 960              	.LBE109:
 184:Middlewares/Third_Party/FreeRTOS/Source/event_groups.c **** 	#if ( ( INCLUDE_xTaskGetSchedulerState == 1 ) || ( configUSE_TIMERS == 1 ) )
 961              		.loc 1 184 2 is_stmt 1 discriminator 2 view .LVU317
 184:Middlewares/Third_Party/FreeRTOS/Source/event_groups.c **** 	#if ( ( INCLUDE_xTaskGetSchedulerState == 1 ) || ( configUSE_TIMERS == 1 ) )
 962              		.loc 1 184 2 discriminator 2 view .LVU318
 184:Middlewares/Third_Party/FreeRTOS/Source/event_groups.c **** 	#if ( ( INCLUDE_xTaskGetSchedulerState == 1 ) || ( configUSE_TIMERS == 1 ) )
 963              		.loc 1 184 2 discriminator 2 view .LVU319
 184:Middlewares/Third_Party/FreeRTOS/Source/event_groups.c **** 	#if ( ( INCLUDE_xTaskGetSchedulerState == 1 ) || ( configUSE_TIMERS == 1 ) )
 964              		.loc 1 184 2 discriminator 2 view .LVU320
 965 002a FEE7     		b	.L82
 966              	.LVL73:
 967              	.L81:
 184:Middlewares/Third_Party/FreeRTOS/Source/event_groups.c **** 	#if ( ( INCLUDE_xTaskGetSchedulerState == 1 ) || ( configUSE_TIMERS == 1 ) )
ARM GAS  C:\Users\Johannes\AppData\Local\Temp\cci40EjN.s 			page 38


 968              		.loc 1 184 38 discriminator 2 view .LVU321
 187:Middlewares/Third_Party/FreeRTOS/Source/event_groups.c **** 	}
 969              		.loc 1 187 3 discriminator 2 view .LVU322
 177:Middlewares/Third_Party/FreeRTOS/Source/event_groups.c **** EventBits_t uxOriginalBitValue, uxReturn;
 970              		.loc 1 177 1 is_stmt 0 discriminator 2 view .LVU323
 971 002c 2DE9F041 		push	{r4, r5, r6, r7, r8, lr}
 972              	.LCFI6:
 973              		.cfi_def_cfa_offset 24
 974              		.cfi_offset 4, -24
 975              		.cfi_offset 5, -20
 976              		.cfi_offset 6, -16
 977              		.cfi_offset 7, -12
 978              		.cfi_offset 8, -8
 979              		.cfi_offset 14, -4
 980 0030 1F46     		mov	r7, r3
 981 0032 8846     		mov	r8, r1
 982 0034 0646     		mov	r6, r0
 983 0036 1546     		mov	r5, r2
 187:Middlewares/Third_Party/FreeRTOS/Source/event_groups.c **** 	}
 984              		.loc 1 187 3 discriminator 2 view .LVU324
 985 0038 FFF7FEFF 		bl	xTaskGetSchedulerState
 986              	.LVL74:
 187:Middlewares/Third_Party/FreeRTOS/Source/event_groups.c **** 	}
 987              		.loc 1 187 3 discriminator 2 view .LVU325
 988 003c C0B9     		cbnz	r0, .L83
 187:Middlewares/Third_Party/FreeRTOS/Source/event_groups.c **** 	}
 989              		.loc 1 187 3 discriminator 2 view .LVU326
 990 003e 47B1     		cbz	r7, .L84
 187:Middlewares/Third_Party/FreeRTOS/Source/event_groups.c **** 	}
 991              		.loc 1 187 3 is_stmt 1 view .LVU327
 992              	.LBB111:
 993              	.LBI111:
 191:Middlewares/Third_Party/FreeRTOS/Source/portable/GCC/ARM_CM3/portmacro.h **** {
 994              		.loc 2 191 30 view .LVU328
 995              	.LBB112:
 193:Middlewares/Third_Party/FreeRTOS/Source/portable/GCC/ARM_CM3/portmacro.h **** 
 996              		.loc 2 193 1 view .LVU329
 195:Middlewares/Third_Party/FreeRTOS/Source/portable/GCC/ARM_CM3/portmacro.h **** 	(
 997              		.loc 2 195 2 view .LVU330
 998              		.syntax unified
 999              	@ 195 "Middlewares/Third_Party/FreeRTOS/Source/portable/GCC/ARM_CM3/portmacro.h" 1
 1000 0040 4FF05003 			mov r3, #80												
 1001 0044 83F31188 		msr basepri, r3											
 1002 0048 BFF36F8F 		isb														
 1003 004c BFF34F8F 		dsb														
 1004              	
 1005              	@ 0 "" 2
 1006              	.LVL75:
 1007              		.thumb
 1008              		.syntax unified
 1009              	.L85:
 195:Middlewares/Third_Party/FreeRTOS/Source/portable/GCC/ARM_CM3/portmacro.h **** 	(
 1010              		.loc 2 195 2 is_stmt 0 view .LVU331
 1011              	.LBE112:
 1012              	.LBE111:
 187:Middlewares/Third_Party/FreeRTOS/Source/event_groups.c **** 	}
 1013              		.loc 1 187 3 is_stmt 1 discriminator 3 view .LVU332
ARM GAS  C:\Users\Johannes\AppData\Local\Temp\cci40EjN.s 			page 39


 187:Middlewares/Third_Party/FreeRTOS/Source/event_groups.c **** 	}
 1014              		.loc 1 187 3 discriminator 3 view .LVU333
 187:Middlewares/Third_Party/FreeRTOS/Source/event_groups.c **** 	}
 1015              		.loc 1 187 3 discriminator 3 view .LVU334
 187:Middlewares/Third_Party/FreeRTOS/Source/event_groups.c **** 	}
 1016              		.loc 1 187 3 discriminator 3 view .LVU335
 1017 0050 FEE7     		b	.L85
 1018              	.L84:
 187:Middlewares/Third_Party/FreeRTOS/Source/event_groups.c **** 	}
 1019              		.loc 1 187 104 view .LVU336
 191:Middlewares/Third_Party/FreeRTOS/Source/event_groups.c **** 	{
 1020              		.loc 1 191 2 view .LVU337
 1021 0052 FFF7FEFF 		bl	vTaskSuspendAll
 1022              	.LVL76:
 193:Middlewares/Third_Party/FreeRTOS/Source/event_groups.c **** 
 1023              		.loc 1 193 3 view .LVU338
 195:Middlewares/Third_Party/FreeRTOS/Source/event_groups.c **** 
 1024              		.loc 1 195 12 is_stmt 0 view .LVU339
 1025 0056 4146     		mov	r1, r8
 193:Middlewares/Third_Party/FreeRTOS/Source/event_groups.c **** 
 1026              		.loc 1 193 22 view .LVU340
 1027 0058 3468     		ldr	r4, [r6]
 1028              	.LVL77:
 195:Middlewares/Third_Party/FreeRTOS/Source/event_groups.c **** 
 1029              		.loc 1 195 3 is_stmt 1 view .LVU341
 195:Middlewares/Third_Party/FreeRTOS/Source/event_groups.c **** 
 1030              		.loc 1 195 12 is_stmt 0 view .LVU342
 1031 005a 3046     		mov	r0, r6
 197:Middlewares/Third_Party/FreeRTOS/Source/event_groups.c **** 		{
 1032              		.loc 1 197 30 view .LVU343
 1033 005c 0C43     		orrs	r4, r4, r1
 1034              	.LVL78:
 195:Middlewares/Third_Party/FreeRTOS/Source/event_groups.c **** 
 1035              		.loc 1 195 12 view .LVU344
 1036 005e FFF7FEFF 		bl	xEventGroupSetBits
 1037              	.LVL79:
 197:Middlewares/Third_Party/FreeRTOS/Source/event_groups.c **** 		{
 1038              		.loc 1 197 3 is_stmt 1 view .LVU345
 197:Middlewares/Third_Party/FreeRTOS/Source/event_groups.c **** 		{
 1039              		.loc 1 197 5 is_stmt 0 view .LVU346
 1040 0062 35EA0403 		bics	r3, r5, r4
 1041 0066 29D0     		beq	.L93
 1042              	.L88:
 229:Middlewares/Third_Party/FreeRTOS/Source/event_groups.c **** 				xTimeoutOccurred = pdTRUE;
 1043              		.loc 1 229 5 is_stmt 1 view .LVU347
 229:Middlewares/Third_Party/FreeRTOS/Source/event_groups.c **** 				xTimeoutOccurred = pdTRUE;
 1044              		.loc 1 229 14 is_stmt 0 view .LVU348
 1045 0068 3468     		ldr	r4, [r6]
 1046              	.LVL80:
 230:Middlewares/Third_Party/FreeRTOS/Source/event_groups.c **** 			}
 1047              		.loc 1 230 5 is_stmt 1 view .LVU349
 234:Middlewares/Third_Party/FreeRTOS/Source/event_groups.c **** 
 1048              		.loc 1 234 2 view .LVU350
 234:Middlewares/Third_Party/FreeRTOS/Source/event_groups.c **** 
 1049              		.loc 1 234 20 is_stmt 0 view .LVU351
 1050 006a FFF7FEFF 		bl	xTaskResumeAll
 1051              	.LVL81:
ARM GAS  C:\Users\Johannes\AppData\Local\Temp\cci40EjN.s 			page 40


 236:Middlewares/Third_Party/FreeRTOS/Source/event_groups.c **** 	{
 1052              		.loc 1 236 2 is_stmt 1 view .LVU352
 1053 006e 2BE0     		b	.L78
 1054              	.LVL82:
 1055              	.L83:
 187:Middlewares/Third_Party/FreeRTOS/Source/event_groups.c **** 	}
 1056              		.loc 1 187 104 discriminator 8 view .LVU353
 191:Middlewares/Third_Party/FreeRTOS/Source/event_groups.c **** 	{
 1057              		.loc 1 191 2 discriminator 8 view .LVU354
 1058 0070 FFF7FEFF 		bl	vTaskSuspendAll
 1059              	.LVL83:
 193:Middlewares/Third_Party/FreeRTOS/Source/event_groups.c **** 
 1060              		.loc 1 193 3 discriminator 8 view .LVU355
 195:Middlewares/Third_Party/FreeRTOS/Source/event_groups.c **** 
 1061              		.loc 1 195 12 is_stmt 0 discriminator 8 view .LVU356
 1062 0074 4146     		mov	r1, r8
 193:Middlewares/Third_Party/FreeRTOS/Source/event_groups.c **** 
 1063              		.loc 1 193 22 discriminator 8 view .LVU357
 1064 0076 3468     		ldr	r4, [r6]
 1065              	.LVL84:
 195:Middlewares/Third_Party/FreeRTOS/Source/event_groups.c **** 
 1066              		.loc 1 195 3 is_stmt 1 discriminator 8 view .LVU358
 195:Middlewares/Third_Party/FreeRTOS/Source/event_groups.c **** 
 1067              		.loc 1 195 12 is_stmt 0 discriminator 8 view .LVU359
 1068 0078 3046     		mov	r0, r6
 197:Middlewares/Third_Party/FreeRTOS/Source/event_groups.c **** 		{
 1069              		.loc 1 197 30 discriminator 8 view .LVU360
 1070 007a 0C43     		orrs	r4, r4, r1
 1071              	.LVL85:
 195:Middlewares/Third_Party/FreeRTOS/Source/event_groups.c **** 
 1072              		.loc 1 195 12 discriminator 8 view .LVU361
 1073 007c FFF7FEFF 		bl	xEventGroupSetBits
 1074              	.LVL86:
 197:Middlewares/Third_Party/FreeRTOS/Source/event_groups.c **** 		{
 1075              		.loc 1 197 3 is_stmt 1 discriminator 8 view .LVU362
 197:Middlewares/Third_Party/FreeRTOS/Source/event_groups.c **** 		{
 1076              		.loc 1 197 5 is_stmt 0 discriminator 8 view .LVU363
 1077 0080 35EA0403 		bics	r3, r5, r4
 1078 0084 1AD0     		beq	.L93
 210:Middlewares/Third_Party/FreeRTOS/Source/event_groups.c **** 			{
 1079              		.loc 1 210 4 is_stmt 1 view .LVU364
 210:Middlewares/Third_Party/FreeRTOS/Source/event_groups.c **** 			{
 1080              		.loc 1 210 6 is_stmt 0 view .LVU365
 1081 0086 002F     		cmp	r7, #0
 1082 0088 EED0     		beq	.L88
 212:Middlewares/Third_Party/FreeRTOS/Source/event_groups.c **** 
 1083              		.loc 1 212 77 is_stmt 1 view .LVU366
 217:Middlewares/Third_Party/FreeRTOS/Source/event_groups.c **** 
 1084              		.loc 1 217 5 view .LVU367
 1085 008a 3A46     		mov	r2, r7
 1086 008c 45F0A061 		orr	r1, r5, #83886080
 1087 0090 301D     		adds	r0, r6, #4
 1088 0092 FFF7FEFF 		bl	vTaskPlaceOnUnorderedEventList
 1089              	.LVL87:
 223:Middlewares/Third_Party/FreeRTOS/Source/event_groups.c **** 			}
 1090              		.loc 1 223 5 view .LVU368
 234:Middlewares/Third_Party/FreeRTOS/Source/event_groups.c **** 
ARM GAS  C:\Users\Johannes\AppData\Local\Temp\cci40EjN.s 			page 41


 1091              		.loc 1 234 2 view .LVU369
 234:Middlewares/Third_Party/FreeRTOS/Source/event_groups.c **** 
 1092              		.loc 1 234 20 is_stmt 0 view .LVU370
 1093 0096 FFF7FEFF 		bl	xTaskResumeAll
 1094              	.LVL88:
 236:Middlewares/Third_Party/FreeRTOS/Source/event_groups.c **** 	{
 1095              		.loc 1 236 2 is_stmt 1 view .LVU371
 238:Middlewares/Third_Party/FreeRTOS/Source/event_groups.c **** 		{
 1096              		.loc 1 238 3 view .LVU372
 238:Middlewares/Third_Party/FreeRTOS/Source/event_groups.c **** 		{
 1097              		.loc 1 238 5 is_stmt 0 view .LVU373
 1098 009a 38B9     		cbnz	r0, .L90
 240:Middlewares/Third_Party/FreeRTOS/Source/event_groups.c **** 		}
 1099              		.loc 1 240 4 is_stmt 1 view .LVU374
 1100 009c 4FF08052 		mov	r2, #268435456
 1101 00a0 114B     		ldr	r3, .L100
 1102 00a2 1A60     		str	r2, [r3]
 240:Middlewares/Third_Party/FreeRTOS/Source/event_groups.c **** 		}
 1103              		.loc 1 240 4 view .LVU375
 1104              		.syntax unified
 1105              	@ 240 "Middlewares/Third_Party/FreeRTOS/Source/event_groups.c" 1
 1106 00a4 BFF34F8F 		dsb
 1107              	@ 0 "" 2
 240:Middlewares/Third_Party/FreeRTOS/Source/event_groups.c **** 		}
 1108              		.loc 1 240 4 view .LVU376
 1109              	@ 240 "Middlewares/Third_Party/FreeRTOS/Source/event_groups.c" 1
 1110 00a8 BFF36F8F 		isb
 1111              	@ 0 "" 2
 240:Middlewares/Third_Party/FreeRTOS/Source/event_groups.c **** 		}
 1112              		.loc 1 240 26 view .LVU377
 1113              		.thumb
 1114              		.syntax unified
 1115              	.L90:
 244:Middlewares/Third_Party/FreeRTOS/Source/event_groups.c **** 		}
 1116              		.loc 1 244 28 view .LVU378
 251:Middlewares/Third_Party/FreeRTOS/Source/event_groups.c **** 
 1117              		.loc 1 251 3 view .LVU379
 251:Middlewares/Third_Party/FreeRTOS/Source/event_groups.c **** 
 1118              		.loc 1 251 14 is_stmt 0 view .LVU380
 1119 00ac FFF7FEFF 		bl	uxTaskResetEventItemValue
 1120              	.LVL89:
 253:Middlewares/Third_Party/FreeRTOS/Source/event_groups.c **** 		{
 1121              		.loc 1 253 5 view .LVU381
 1122 00b0 8301     		lsls	r3, r0, #6
 251:Middlewares/Third_Party/FreeRTOS/Source/event_groups.c **** 
 1123              		.loc 1 251 14 view .LVU382
 1124 00b2 0446     		mov	r4, r0
 1125              	.LVL90:
 253:Middlewares/Third_Party/FreeRTOS/Source/event_groups.c **** 		{
 1126              		.loc 1 253 3 is_stmt 1 view .LVU383
 253:Middlewares/Third_Party/FreeRTOS/Source/event_groups.c **** 		{
 1127              		.loc 1 253 5 is_stmt 0 view .LVU384
 1128 00b4 0BD5     		bpl	.L99
 1129              	.LVL91:
 1130              	.L91:
 280:Middlewares/Third_Party/FreeRTOS/Source/event_groups.c **** 
 1131              		.loc 1 280 3 is_stmt 1 view .LVU385
ARM GAS  C:\Users\Johannes\AppData\Local\Temp\cci40EjN.s 			page 42


 284:Middlewares/Third_Party/FreeRTOS/Source/event_groups.c **** 	}
 1132              		.loc 1 284 3 view .LVU386
 284:Middlewares/Third_Party/FreeRTOS/Source/event_groups.c **** 	}
 1133              		.loc 1 284 12 is_stmt 0 view .LVU387
 1134 00b6 24F07F44 		bic	r4, r4, #-16777216
 1135              	.LVL92:
 287:Middlewares/Third_Party/FreeRTOS/Source/event_groups.c **** 
 1136              		.loc 1 287 2 is_stmt 1 view .LVU388
 290:Middlewares/Third_Party/FreeRTOS/Source/event_groups.c **** 
 1137              		.loc 1 290 2 view .LVU389
 292:Middlewares/Third_Party/FreeRTOS/Source/event_groups.c **** }
 1138              		.loc 1 292 2 view .LVU390
 292:Middlewares/Third_Party/FreeRTOS/Source/event_groups.c **** }
 1139              		.loc 1 292 9 is_stmt 0 view .LVU391
 1140 00ba 05E0     		b	.L78
 1141              	.LVL93:
 1142              	.L93:
 200:Middlewares/Third_Party/FreeRTOS/Source/event_groups.c **** 
 1143              		.loc 1 200 4 is_stmt 1 view .LVU392
 204:Middlewares/Third_Party/FreeRTOS/Source/event_groups.c **** 
 1144              		.loc 1 204 4 view .LVU393
 204:Middlewares/Third_Party/FreeRTOS/Source/event_groups.c **** 
 1145              		.loc 1 204 29 is_stmt 0 view .LVU394
 1146 00bc 3368     		ldr	r3, [r6]
 1147 00be 23EA0503 		bic	r3, r3, r5
 1148 00c2 3360     		str	r3, [r6]
 206:Middlewares/Third_Party/FreeRTOS/Source/event_groups.c **** 		}
 1149              		.loc 1 206 4 is_stmt 1 view .LVU395
 1150              	.LVL94:
 234:Middlewares/Third_Party/FreeRTOS/Source/event_groups.c **** 
 1151              		.loc 1 234 2 view .LVU396
 234:Middlewares/Third_Party/FreeRTOS/Source/event_groups.c **** 
 1152              		.loc 1 234 20 is_stmt 0 view .LVU397
 1153 00c4 FFF7FEFF 		bl	xTaskResumeAll
 1154              	.LVL95:
 236:Middlewares/Third_Party/FreeRTOS/Source/event_groups.c **** 	{
 1155              		.loc 1 236 2 is_stmt 1 view .LVU398
 1156              	.L78:
 293:Middlewares/Third_Party/FreeRTOS/Source/event_groups.c **** /*-----------------------------------------------------------*/
 1157              		.loc 1 293 1 is_stmt 0 view .LVU399
 1158 00c8 2046     		mov	r0, r4
 1159 00ca BDE8F081 		pop	{r4, r5, r6, r7, r8, pc}
 1160              	.LVL96:
 1161              	.L99:
 256:Middlewares/Third_Party/FreeRTOS/Source/event_groups.c **** 			{
 1162              		.loc 1 256 4 is_stmt 1 view .LVU400
 1163 00ce FFF7FEFF 		bl	vPortEnterCritical
 1164              	.LVL97:
 258:Middlewares/Third_Party/FreeRTOS/Source/event_groups.c **** 
 1165              		.loc 1 258 5 view .LVU401
 258:Middlewares/Third_Party/FreeRTOS/Source/event_groups.c **** 
 1166              		.loc 1 258 14 is_stmt 0 view .LVU402
 1167 00d2 3468     		ldr	r4, [r6]
 1168              	.LVL98:
 264:Middlewares/Third_Party/FreeRTOS/Source/event_groups.c **** 				{
 1169              		.loc 1 264 5 is_stmt 1 view .LVU403
 266:Middlewares/Third_Party/FreeRTOS/Source/event_groups.c **** 				}
ARM GAS  C:\Users\Johannes\AppData\Local\Temp\cci40EjN.s 			page 43


 1170              		.loc 1 266 6 view .LVU404
 264:Middlewares/Third_Party/FreeRTOS/Source/event_groups.c **** 				{
 1171              		.loc 1 264 7 is_stmt 0 view .LVU405
 1172 00d4 35EA0403 		bics	r3, r5, r4
 266:Middlewares/Third_Party/FreeRTOS/Source/event_groups.c **** 				}
 1173              		.loc 1 266 31 view .LVU406
 1174 00d8 04BF     		itt	eq
 1175 00da 24EA0505 		biceq	r5, r4, r5
 1176              	.LVL99:
 266:Middlewares/Third_Party/FreeRTOS/Source/event_groups.c **** 				}
 1177              		.loc 1 266 31 view .LVU407
 1178 00de 3560     		streq	r5, [r6]
 270:Middlewares/Third_Party/FreeRTOS/Source/event_groups.c **** 				}
 1179              		.loc 1 270 30 is_stmt 1 view .LVU408
 273:Middlewares/Third_Party/FreeRTOS/Source/event_groups.c **** 
 1180              		.loc 1 273 4 view .LVU409
 1181 00e0 FFF7FEFF 		bl	vPortExitCritical
 1182              	.LVL100:
 275:Middlewares/Third_Party/FreeRTOS/Source/event_groups.c **** 		}
 1183              		.loc 1 275 4 view .LVU410
 275:Middlewares/Third_Party/FreeRTOS/Source/event_groups.c **** 		}
 1184              		.loc 1 275 4 is_stmt 0 view .LVU411
 1185 00e4 E7E7     		b	.L91
 1186              	.L101:
 1187 00e6 00BF     		.align	2
 1188              	.L100:
 1189 00e8 04ED00E0 		.word	-536810236
 1190              		.cfi_endproc
 1191              	.LFE6:
 1193              		.section	.text.vEventGroupDelete,"ax",%progbits
 1194              		.align	1
 1195              		.p2align 2,,3
 1196              		.global	vEventGroupDelete
 1197              		.syntax unified
 1198              		.thumb
 1199              		.thumb_func
 1200              		.fpu softvfp
 1202              	vEventGroupDelete:
 1203              	.LVL101:
 1204              	.LFB11:
 599:Middlewares/Third_Party/FreeRTOS/Source/event_groups.c **** EventGroup_t *pxEventBits = ( EventGroup_t * ) xEventGroup;
 1205              		.loc 1 599 1 is_stmt 1 view -0
 1206              		.cfi_startproc
 1207              		@ args = 0, pretend = 0, frame = 0
 1208              		@ frame_needed = 0, uses_anonymous_args = 0
 600:Middlewares/Third_Party/FreeRTOS/Source/event_groups.c **** const List_t *pxTasksWaitingForBits = &( pxEventBits->xTasksWaitingForBits );
 1209              		.loc 1 600 1 view .LVU413
 599:Middlewares/Third_Party/FreeRTOS/Source/event_groups.c **** EventGroup_t *pxEventBits = ( EventGroup_t * ) xEventGroup;
 1210              		.loc 1 599 1 is_stmt 0 view .LVU414
 1211 0000 38B5     		push	{r3, r4, r5, lr}
 1212              	.LCFI7:
 1213              		.cfi_def_cfa_offset 16
 1214              		.cfi_offset 3, -16
 1215              		.cfi_offset 4, -12
 1216              		.cfi_offset 5, -8
 1217              		.cfi_offset 14, -4
 599:Middlewares/Third_Party/FreeRTOS/Source/event_groups.c **** EventGroup_t *pxEventBits = ( EventGroup_t * ) xEventGroup;
ARM GAS  C:\Users\Johannes\AppData\Local\Temp\cci40EjN.s 			page 44


 1218              		.loc 1 599 1 view .LVU415
 1219 0002 0446     		mov	r4, r0
 1220              	.LVL102:
 601:Middlewares/Third_Party/FreeRTOS/Source/event_groups.c **** 
 1221              		.loc 1 601 1 is_stmt 1 view .LVU416
 603:Middlewares/Third_Party/FreeRTOS/Source/event_groups.c **** 	{
 1222              		.loc 1 603 2 view .LVU417
 1223 0004 FFF7FEFF 		bl	vTaskSuspendAll
 1224              	.LVL103:
 605:Middlewares/Third_Party/FreeRTOS/Source/event_groups.c **** 
 1225              		.loc 1 605 41 view .LVU418
 607:Middlewares/Third_Party/FreeRTOS/Source/event_groups.c **** 		{
 1226              		.loc 1 607 3 view .LVU419
 607:Middlewares/Third_Party/FreeRTOS/Source/event_groups.c **** 		{
 1227              		.loc 1 607 10 is_stmt 0 view .LVU420
 1228 0008 6368     		ldr	r3, [r4, #4]
 607:Middlewares/Third_Party/FreeRTOS/Source/event_groups.c **** 		{
 1229              		.loc 1 607 8 view .LVU421
 1230 000a 7BB1     		cbz	r3, .L108
 611:Middlewares/Third_Party/FreeRTOS/Source/event_groups.c **** 			vTaskRemoveFromUnorderedEventList( pxTasksWaitingForBits->xListEnd.pxNext, eventUNBLOCKED_DUE_TO
 1231              		.loc 1 611 4 is_stmt 1 view .LVU422
 1232 000c 2069     		ldr	r0, [r4, #16]
 1233 000e 04F10C05 		add	r5, r4, #12
 1234 0012 A842     		cmp	r0, r5
 1235 0014 03D1     		bne	.L105
 1236 0016 10E0     		b	.L104
 1237              	.L107:
 1238 0018 2069     		ldr	r0, [r4, #16]
 1239 001a A842     		cmp	r0, r5
 1240 001c 0DD0     		beq	.L104
 1241              	.L105:
 611:Middlewares/Third_Party/FreeRTOS/Source/event_groups.c **** 			vTaskRemoveFromUnorderedEventList( pxTasksWaitingForBits->xListEnd.pxNext, eventUNBLOCKED_DUE_TO
 1242              		.loc 1 611 121 discriminator 2 view .LVU423
 612:Middlewares/Third_Party/FreeRTOS/Source/event_groups.c **** 		}
 1243              		.loc 1 612 4 discriminator 2 view .LVU424
 1244 001e 4FF00071 		mov	r1, #33554432
 1245 0022 FFF7FEFF 		bl	vTaskRemoveFromUnorderedEventList
 1246              	.LVL104:
 611:Middlewares/Third_Party/FreeRTOS/Source/event_groups.c **** 			vTaskRemoveFromUnorderedEventList( pxTasksWaitingForBits->xListEnd.pxNext, eventUNBLOCKED_DUE_TO
 1247              		.loc 1 611 4 discriminator 2 view .LVU425
 607:Middlewares/Third_Party/FreeRTOS/Source/event_groups.c **** 		{
 1248              		.loc 1 607 10 is_stmt 0 discriminator 2 view .LVU426
 1249 0026 6368     		ldr	r3, [r4, #4]
 607:Middlewares/Third_Party/FreeRTOS/Source/event_groups.c **** 		{
 1250              		.loc 1 607 8 discriminator 2 view .LVU427
 1251 0028 002B     		cmp	r3, #0
 1252 002a F5D1     		bne	.L107
 1253              	.L108:
 619:Middlewares/Third_Party/FreeRTOS/Source/event_groups.c **** 		}
 1254              		.loc 1 619 4 is_stmt 1 view .LVU428
 1255 002c 2046     		mov	r0, r4
 1256 002e FFF7FEFF 		bl	vPortFree
 1257              	.LVL105:
 636:Middlewares/Third_Party/FreeRTOS/Source/event_groups.c **** }
 1258              		.loc 1 636 2 view .LVU429
 637:Middlewares/Third_Party/FreeRTOS/Source/event_groups.c **** /*-----------------------------------------------------------*/
 1259              		.loc 1 637 1 is_stmt 0 view .LVU430
ARM GAS  C:\Users\Johannes\AppData\Local\Temp\cci40EjN.s 			page 45


 1260 0032 BDE83840 		pop	{r3, r4, r5, lr}
 1261              	.LCFI8:
 1262              		.cfi_remember_state
 1263              		.cfi_restore 14
 1264              		.cfi_restore 5
 1265              		.cfi_restore 4
 1266              		.cfi_restore 3
 1267              		.cfi_def_cfa_offset 0
 1268              	.LVL106:
 636:Middlewares/Third_Party/FreeRTOS/Source/event_groups.c **** }
 1269              		.loc 1 636 11 view .LVU431
 1270 0036 FFF7FEBF 		b	xTaskResumeAll
 1271              	.LVL107:
 1272              	.L104:
 1273              	.LCFI9:
 1274              		.cfi_restore_state
 611:Middlewares/Third_Party/FreeRTOS/Source/event_groups.c **** 			vTaskRemoveFromUnorderedEventList( pxTasksWaitingForBits->xListEnd.pxNext, eventUNBLOCKED_DUE_TO
 1275              		.loc 1 611 4 is_stmt 1 view .LVU432
 1276              	.LBB113:
 1277              	.LBI113:
 191:Middlewares/Third_Party/FreeRTOS/Source/portable/GCC/ARM_CM3/portmacro.h **** {
 1278              		.loc 2 191 30 view .LVU433
 1279              	.LBB114:
 193:Middlewares/Third_Party/FreeRTOS/Source/portable/GCC/ARM_CM3/portmacro.h **** 
 1280              		.loc 2 193 1 view .LVU434
 195:Middlewares/Third_Party/FreeRTOS/Source/portable/GCC/ARM_CM3/portmacro.h **** 	(
 1281              		.loc 2 195 2 view .LVU435
 1282              		.syntax unified
 1283              	@ 195 "Middlewares/Third_Party/FreeRTOS/Source/portable/GCC/ARM_CM3/portmacro.h" 1
 1284 003a 4FF05003 			mov r3, #80												
 1285 003e 83F31188 		msr basepri, r3											
 1286 0042 BFF36F8F 		isb														
 1287 0046 BFF34F8F 		dsb														
 1288              	
 1289              	@ 0 "" 2
 1290              	.LVL108:
 1291              		.thumb
 1292              		.syntax unified
 1293              	.L106:
 195:Middlewares/Third_Party/FreeRTOS/Source/portable/GCC/ARM_CM3/portmacro.h **** 	(
 1294              		.loc 2 195 2 is_stmt 0 view .LVU436
 1295              	.LBE114:
 1296              	.LBE113:
 611:Middlewares/Third_Party/FreeRTOS/Source/event_groups.c **** 			vTaskRemoveFromUnorderedEventList( pxTasksWaitingForBits->xListEnd.pxNext, eventUNBLOCKED_DUE_TO
 1297              		.loc 1 611 4 is_stmt 1 discriminator 1 view .LVU437
 611:Middlewares/Third_Party/FreeRTOS/Source/event_groups.c **** 			vTaskRemoveFromUnorderedEventList( pxTasksWaitingForBits->xListEnd.pxNext, eventUNBLOCKED_DUE_TO
 1298              		.loc 1 611 4 discriminator 1 view .LVU438
 611:Middlewares/Third_Party/FreeRTOS/Source/event_groups.c **** 			vTaskRemoveFromUnorderedEventList( pxTasksWaitingForBits->xListEnd.pxNext, eventUNBLOCKED_DUE_TO
 1299              		.loc 1 611 4 discriminator 1 view .LVU439
 611:Middlewares/Third_Party/FreeRTOS/Source/event_groups.c **** 			vTaskRemoveFromUnorderedEventList( pxTasksWaitingForBits->xListEnd.pxNext, eventUNBLOCKED_DUE_TO
 1300              		.loc 1 611 4 discriminator 1 view .LVU440
 1301 004a FEE7     		b	.L106
 1302              		.cfi_endproc
 1303              	.LFE11:
 1305              		.section	.text.vEventGroupSetBitsCallback,"ax",%progbits
 1306              		.align	1
 1307              		.p2align 2,,3
ARM GAS  C:\Users\Johannes\AppData\Local\Temp\cci40EjN.s 			page 46


 1308              		.global	vEventGroupSetBitsCallback
 1309              		.syntax unified
 1310              		.thumb
 1311              		.thumb_func
 1312              		.fpu softvfp
 1314              	vEventGroupSetBitsCallback:
 1315              	.LVL109:
 1316              	.LFB12:
 643:Middlewares/Third_Party/FreeRTOS/Source/event_groups.c **** 	( void ) xEventGroupSetBits( pvEventGroup, ( EventBits_t ) ulBitsToSet );
 1317              		.loc 1 643 1 view -0
 1318              		.cfi_startproc
 1319              		@ args = 0, pretend = 0, frame = 0
 1320              		@ frame_needed = 0, uses_anonymous_args = 0
 1321              		@ link register save eliminated.
 644:Middlewares/Third_Party/FreeRTOS/Source/event_groups.c **** }
 1322              		.loc 1 644 2 view .LVU442
 644:Middlewares/Third_Party/FreeRTOS/Source/event_groups.c **** }
 1323              		.loc 1 644 11 is_stmt 0 view .LVU443
 1324 0000 FFF7FEBF 		b	xEventGroupSetBits
 1325              	.LVL110:
 644:Middlewares/Third_Party/FreeRTOS/Source/event_groups.c **** }
 1326              		.loc 1 644 11 view .LVU444
 1327              		.cfi_endproc
 1328              	.LFE12:
 1330              		.section	.text.vEventGroupClearBitsCallback,"ax",%progbits
 1331              		.align	1
 1332              		.p2align 2,,3
 1333              		.global	vEventGroupClearBitsCallback
 1334              		.syntax unified
 1335              		.thumb
 1336              		.thumb_func
 1337              		.fpu softvfp
 1339              	vEventGroupClearBitsCallback:
 1340              	.LVL111:
 1341              	.LFB13:
 651:Middlewares/Third_Party/FreeRTOS/Source/event_groups.c **** 	( void ) xEventGroupClearBits( pvEventGroup, ( EventBits_t ) ulBitsToClear );
 1342              		.loc 1 651 1 is_stmt 1 view -0
 1343              		.cfi_startproc
 1344              		@ args = 0, pretend = 0, frame = 0
 1345              		@ frame_needed = 0, uses_anonymous_args = 0
 1346              		@ link register save eliminated.
 652:Middlewares/Third_Party/FreeRTOS/Source/event_groups.c **** }
 1347              		.loc 1 652 2 view .LVU446
 652:Middlewares/Third_Party/FreeRTOS/Source/event_groups.c **** }
 1348              		.loc 1 652 11 is_stmt 0 view .LVU447
 1349 0000 FFF7FEBF 		b	xEventGroupClearBits
 1350              	.LVL112:
 652:Middlewares/Third_Party/FreeRTOS/Source/event_groups.c **** }
 1351              		.loc 1 652 11 view .LVU448
 1352              		.cfi_endproc
 1353              	.LFE13:
 1355              		.text
 1356              	.Letext0:
 1357              		.file 3 "c:\\toolchains\\vsarm\\armcc\\lib\\gcc\\arm-none-eabi\\8.3.1\\include\\stddef.h"
 1358              		.file 4 "c:\\toolchains\\vsarm\\armcc\\arm-none-eabi\\include\\machine\\_default_types.h"
 1359              		.file 5 "c:\\toolchains\\vsarm\\armcc\\arm-none-eabi\\include\\sys\\_types.h"
 1360              		.file 6 "c:\\toolchains\\vsarm\\armcc\\arm-none-eabi\\include\\sys\\reent.h"
ARM GAS  C:\Users\Johannes\AppData\Local\Temp\cci40EjN.s 			page 47


 1361              		.file 7 "c:\\toolchains\\vsarm\\armcc\\arm-none-eabi\\include\\sys\\lock.h"
 1362              		.file 8 "c:\\toolchains\\vsarm\\armcc\\arm-none-eabi\\include\\stdlib.h"
 1363              		.file 9 "c:\\toolchains\\vsarm\\armcc\\arm-none-eabi\\include\\sys\\_stdint.h"
 1364              		.file 10 "Inc/FreeRTOSConfig.h"
 1365              		.file 11 "Middlewares/Third_Party/FreeRTOS/Source/include/list.h"
 1366              		.file 12 "Middlewares/Third_Party/FreeRTOS/Source/include/event_groups.h"
 1367              		.file 13 "Middlewares/Third_Party/FreeRTOS/Source/include/task.h"
 1368              		.file 14 "Middlewares/Third_Party/FreeRTOS/Source/include/portable.h"
ARM GAS  C:\Users\Johannes\AppData\Local\Temp\cci40EjN.s 			page 48

